ARM GAS  C:\Users\geoma\AppData\Local\Temp\cc6X62Dw.s 			page 1


   1              		.cpu cortex-m4
   2              		.arch armv7e-m
   3              		.fpu fpv4-sp-d16
   4              		.eabi_attribute 27, 1
   5              		.eabi_attribute 28, 1
   6              		.eabi_attribute 20, 1
   7              		.eabi_attribute 21, 1
   8              		.eabi_attribute 23, 3
   9              		.eabi_attribute 24, 1
  10              		.eabi_attribute 25, 1
  11              		.eabi_attribute 26, 1
  12              		.eabi_attribute 30, 1
  13              		.eabi_attribute 34, 1
  14              		.eabi_attribute 18, 4
  15              		.file	"fifo_buffer.c"
  16              		.text
  17              	.Ltext0:
  18              		.cfi_sections	.debug_frame
  19              		.section	.text.fifoBuf_getSize,"ax",%progbits
  20              		.align	1
  21              		.global	fifoBuf_getSize
  22              		.syntax unified
  23              		.thumb
  24              		.thumb_func
  26              	fifoBuf_getSize:
  27              	.LVL0:
  28              	.LFB0:
  29              		.file 1 "flight/libraries/fifo_buffer.c"
   1:flight/libraries/fifo_buffer.c **** /**
   2:flight/libraries/fifo_buffer.c ****  ******************************************************************************
   3:flight/libraries/fifo_buffer.c ****  *
   4:flight/libraries/fifo_buffer.c ****  * @file       fifo_buffer.c
   5:flight/libraries/fifo_buffer.c ****  * @author     The OpenPilot Team, http://www.openpilot.org Copyright (C) 2010.
   6:flight/libraries/fifo_buffer.c ****  * @brief      GPIO input functions
   7:flight/libraries/fifo_buffer.c ****  * @see        The GNU Public License (GPL) Version 3
   8:flight/libraries/fifo_buffer.c ****  *
   9:flight/libraries/fifo_buffer.c ****  *****************************************************************************/
  10:flight/libraries/fifo_buffer.c **** /*
  11:flight/libraries/fifo_buffer.c ****  * This program is free software; you can redistribute it and/or modify
  12:flight/libraries/fifo_buffer.c ****  * it under the terms of the GNU General Public License as published by
  13:flight/libraries/fifo_buffer.c ****  * the Free Software Foundation; either version 3 of the License, or
  14:flight/libraries/fifo_buffer.c ****  * (at your option) any later version.
  15:flight/libraries/fifo_buffer.c ****  *
  16:flight/libraries/fifo_buffer.c ****  * This program is distributed in the hope that it will be useful, but
  17:flight/libraries/fifo_buffer.c ****  * WITHOUT ANY WARRANTY; without even the implied warranty of MERCHANTABILITY
  18:flight/libraries/fifo_buffer.c ****  * or FITNESS FOR A PARTICULAR PURPOSE. See the GNU General Public License
  19:flight/libraries/fifo_buffer.c ****  * for more details.
  20:flight/libraries/fifo_buffer.c ****  *
  21:flight/libraries/fifo_buffer.c ****  * You should have received a copy of the GNU General Public License along
  22:flight/libraries/fifo_buffer.c ****  * with this program; if not, write to the Free Software Foundation, Inc.,
  23:flight/libraries/fifo_buffer.c ****  * 59 Temple Place, Suite 330, Boston, MA 02111-1307 USA
  24:flight/libraries/fifo_buffer.c ****  */
  25:flight/libraries/fifo_buffer.c **** 
  26:flight/libraries/fifo_buffer.c **** #include <string.h>
  27:flight/libraries/fifo_buffer.c **** 
  28:flight/libraries/fifo_buffer.c **** #include "fifo_buffer.h"
  29:flight/libraries/fifo_buffer.c **** 
ARM GAS  C:\Users\geoma\AppData\Local\Temp\cc6X62Dw.s 			page 2


  30:flight/libraries/fifo_buffer.c **** // *****************************************************************************
  31:flight/libraries/fifo_buffer.c **** // circular buffer functions
  32:flight/libraries/fifo_buffer.c **** 
  33:flight/libraries/fifo_buffer.c **** uint16_t fifoBuf_getSize(t_fifo_buffer *buf)
  34:flight/libraries/fifo_buffer.c **** { // return the usable size of the buffer
  30              		.loc 1 34 1 view -0
  31              		.cfi_startproc
  32              		@ args = 0, pretend = 0, frame = 0
  33              		@ frame_needed = 0, uses_anonymous_args = 0
  34              		@ link register save eliminated.
  35:flight/libraries/fifo_buffer.c ****     uint16_t buf_size = buf->buf_size;
  35              		.loc 1 35 5 view .LVU1
  36              		.loc 1 35 14 is_stmt 0 view .LVU2
  37 0000 0089     		ldrh	r0, [r0, #8]
  38              	.LVL1:
  36:flight/libraries/fifo_buffer.c **** 
  37:flight/libraries/fifo_buffer.c ****     if (buf_size > 0) {
  39              		.loc 1 37 5 is_stmt 1 view .LVU3
  40              		.loc 1 37 8 is_stmt 0 view .LVU4
  41 0002 08B1     		cbz	r0, .L2
  38:flight/libraries/fifo_buffer.c ****         return buf_size - 1;
  42              		.loc 1 38 9 is_stmt 1 view .LVU5
  43              		.loc 1 38 25 is_stmt 0 view .LVU6
  44 0004 0138     		subs	r0, r0, #1
  45              	.LVL2:
  46              		.loc 1 38 25 view .LVU7
  47 0006 80B2     		uxth	r0, r0
  48              	.LVL3:
  49              	.L2:
  39:flight/libraries/fifo_buffer.c ****     } else {
  40:flight/libraries/fifo_buffer.c ****         return 0;
  41:flight/libraries/fifo_buffer.c ****     }
  42:flight/libraries/fifo_buffer.c **** }
  50              		.loc 1 42 1 view .LVU8
  51 0008 7047     		bx	lr
  52              		.cfi_endproc
  53              	.LFE0:
  55              		.section	.text.fifoBuf_getUsed,"ax",%progbits
  56              		.align	1
  57              		.global	fifoBuf_getUsed
  58              		.syntax unified
  59              		.thumb
  60              		.thumb_func
  62              	fifoBuf_getUsed:
  63              	.LVL4:
  64              	.LFB1:
  43:flight/libraries/fifo_buffer.c **** 
  44:flight/libraries/fifo_buffer.c **** uint16_t fifoBuf_getUsed(t_fifo_buffer *buf)
  45:flight/libraries/fifo_buffer.c **** { // return the number of bytes available in the rx buffer
  65              		.loc 1 45 1 is_stmt 1 view -0
  66              		.cfi_startproc
  67              		@ args = 0, pretend = 0, frame = 0
  68              		@ frame_needed = 0, uses_anonymous_args = 0
  69              		@ link register save eliminated.
  46:flight/libraries/fifo_buffer.c ****     uint16_t rd = buf->rd;
  70              		.loc 1 46 5 view .LVU10
  71              		.loc 1 46 14 is_stmt 0 view .LVU11
ARM GAS  C:\Users\geoma\AppData\Local\Temp\cc6X62Dw.s 			page 3


  72 0000 8288     		ldrh	r2, [r0, #4]
  73 0002 92B2     		uxth	r2, r2
  74              	.LVL5:
  47:flight/libraries/fifo_buffer.c ****     uint16_t wr = buf->wr;
  75              		.loc 1 47 5 is_stmt 1 view .LVU12
  76              		.loc 1 47 14 is_stmt 0 view .LVU13
  77 0004 C388     		ldrh	r3, [r0, #6]
  78 0006 9BB2     		uxth	r3, r3
  79              	.LVL6:
  48:flight/libraries/fifo_buffer.c ****     uint16_t buf_size  = buf->buf_size;
  80              		.loc 1 48 5 is_stmt 1 view .LVU14
  81              		.loc 1 48 14 is_stmt 0 view .LVU15
  82 0008 0189     		ldrh	r1, [r0, #8]
  83              	.LVL7:
  49:flight/libraries/fifo_buffer.c **** 
  50:flight/libraries/fifo_buffer.c ****     uint16_t num_bytes = wr - rd;
  84              		.loc 1 50 5 is_stmt 1 view .LVU16
  85              		.loc 1 50 14 is_stmt 0 view .LVU17
  86 000a 981A     		subs	r0, r3, r2
  87              	.LVL8:
  88              		.loc 1 50 14 view .LVU18
  89 000c 80B2     		uxth	r0, r0
  90              	.LVL9:
  51:flight/libraries/fifo_buffer.c **** 
  52:flight/libraries/fifo_buffer.c ****     if (wr < rd) {
  91              		.loc 1 52 5 is_stmt 1 view .LVU19
  92              		.loc 1 52 8 is_stmt 0 view .LVU20
  93 000e 9A42     		cmp	r2, r3
  94 0010 03D9     		bls	.L4
  53:flight/libraries/fifo_buffer.c ****         num_bytes = (buf_size - rd) + wr;
  95              		.loc 1 53 9 is_stmt 1 view .LVU21
  96              		.loc 1 53 31 is_stmt 0 view .LVU22
  97 0012 881A     		subs	r0, r1, r2
  98              	.LVL10:
  99              		.loc 1 53 19 view .LVU23
 100 0014 13FA80F0 		uxtah	r0, r3, r0
 101 0018 80B2     		uxth	r0, r0
 102              	.LVL11:
 103              	.L4:
  54:flight/libraries/fifo_buffer.c ****     }
  55:flight/libraries/fifo_buffer.c **** 
  56:flight/libraries/fifo_buffer.c ****     return num_bytes;
 104              		.loc 1 56 5 is_stmt 1 view .LVU24
  57:flight/libraries/fifo_buffer.c **** }
 105              		.loc 1 57 1 is_stmt 0 view .LVU25
 106 001a 7047     		bx	lr
 107              		.cfi_endproc
 108              	.LFE1:
 110              		.section	.text.fifoBuf_getFree,"ax",%progbits
 111              		.align	1
 112              		.global	fifoBuf_getFree
 113              		.syntax unified
 114              		.thumb
 115              		.thumb_func
 117              	fifoBuf_getFree:
 118              	.LVL12:
 119              	.LFB2:
ARM GAS  C:\Users\geoma\AppData\Local\Temp\cc6X62Dw.s 			page 4


  58:flight/libraries/fifo_buffer.c **** 
  59:flight/libraries/fifo_buffer.c **** uint16_t fifoBuf_getFree(t_fifo_buffer *buf)
  60:flight/libraries/fifo_buffer.c **** { // return the free space size in the buffer
 120              		.loc 1 60 1 is_stmt 1 view -0
 121              		.cfi_startproc
 122              		@ args = 0, pretend = 0, frame = 0
 123              		@ frame_needed = 0, uses_anonymous_args = 0
 124              		.loc 1 60 1 is_stmt 0 view .LVU27
 125 0000 10B5     		push	{r4, lr}
 126              	.LCFI0:
 127              		.cfi_def_cfa_offset 8
 128              		.cfi_offset 4, -8
 129              		.cfi_offset 14, -4
  61:flight/libraries/fifo_buffer.c ****     uint16_t buf_size  = buf->buf_size;
 130              		.loc 1 61 5 is_stmt 1 view .LVU28
 131              		.loc 1 61 14 is_stmt 0 view .LVU29
 132 0002 0489     		ldrh	r4, [r0, #8]
 133              	.LVL13:
  62:flight/libraries/fifo_buffer.c **** 
  63:flight/libraries/fifo_buffer.c ****     uint16_t num_bytes = fifoBuf_getUsed(buf);
 134              		.loc 1 63 5 is_stmt 1 view .LVU30
 135              		.loc 1 63 26 is_stmt 0 view .LVU31
 136 0004 FFF7FEFF 		bl	fifoBuf_getUsed
 137              	.LVL14:
  64:flight/libraries/fifo_buffer.c **** 
  65:flight/libraries/fifo_buffer.c ****     return (buf_size - num_bytes) - 1;
 138              		.loc 1 65 5 is_stmt 1 view .LVU32
 139              		.loc 1 65 22 is_stmt 0 view .LVU33
 140 0008 201A     		subs	r0, r4, r0
 141              	.LVL15:
 142              		.loc 1 65 22 view .LVU34
 143 000a 80B2     		uxth	r0, r0
 144              		.loc 1 65 35 view .LVU35
 145 000c 0138     		subs	r0, r0, #1
  66:flight/libraries/fifo_buffer.c **** }
 146              		.loc 1 66 1 view .LVU36
 147 000e 80B2     		uxth	r0, r0
 148 0010 10BD     		pop	{r4, pc}
 149              		.loc 1 66 1 view .LVU37
 150              		.cfi_endproc
 151              	.LFE2:
 153              		.section	.text.fifoBuf_clearData,"ax",%progbits
 154              		.align	1
 155              		.global	fifoBuf_clearData
 156              		.syntax unified
 157              		.thumb
 158              		.thumb_func
 160              	fifoBuf_clearData:
 161              	.LVL16:
 162              	.LFB3:
  67:flight/libraries/fifo_buffer.c **** 
  68:flight/libraries/fifo_buffer.c **** void fifoBuf_clearData(t_fifo_buffer *buf)
  69:flight/libraries/fifo_buffer.c **** { // remove all data from the buffer
 163              		.loc 1 69 1 is_stmt 1 view -0
 164              		.cfi_startproc
 165              		@ args = 0, pretend = 0, frame = 0
 166              		@ frame_needed = 0, uses_anonymous_args = 0
ARM GAS  C:\Users\geoma\AppData\Local\Temp\cc6X62Dw.s 			page 5


 167              		@ link register save eliminated.
  70:flight/libraries/fifo_buffer.c ****     buf->rd = buf->wr;
 168              		.loc 1 70 5 view .LVU39
 169              		.loc 1 70 18 is_stmt 0 view .LVU40
 170 0000 C388     		ldrh	r3, [r0, #6]
 171 0002 9BB2     		uxth	r3, r3
 172              		.loc 1 70 13 view .LVU41
 173 0004 8380     		strh	r3, [r0, #4]	@ movhi
  71:flight/libraries/fifo_buffer.c **** }
 174              		.loc 1 71 1 view .LVU42
 175 0006 7047     		bx	lr
 176              		.cfi_endproc
 177              	.LFE3:
 179              		.section	.text.fifoBuf_removeData,"ax",%progbits
 180              		.align	1
 181              		.global	fifoBuf_removeData
 182              		.syntax unified
 183              		.thumb
 184              		.thumb_func
 186              	fifoBuf_removeData:
 187              	.LVL17:
 188              	.LFB4:
  72:flight/libraries/fifo_buffer.c **** 
  73:flight/libraries/fifo_buffer.c **** void fifoBuf_removeData(t_fifo_buffer *buf, uint16_t len)
  74:flight/libraries/fifo_buffer.c **** { // remove a number of bytes from the buffer
 189              		.loc 1 74 1 is_stmt 1 view -0
 190              		.cfi_startproc
 191              		@ args = 0, pretend = 0, frame = 0
 192              		@ frame_needed = 0, uses_anonymous_args = 0
 193              		.loc 1 74 1 is_stmt 0 view .LVU44
 194 0000 F8B5     		push	{r3, r4, r5, r6, r7, lr}
 195              	.LCFI1:
 196              		.cfi_def_cfa_offset 24
 197              		.cfi_offset 3, -24
 198              		.cfi_offset 4, -20
 199              		.cfi_offset 5, -16
 200              		.cfi_offset 6, -12
 201              		.cfi_offset 7, -8
 202              		.cfi_offset 14, -4
 203 0002 0546     		mov	r5, r0
 204 0004 0C46     		mov	r4, r1
  75:flight/libraries/fifo_buffer.c ****     uint16_t rd = buf->rd;
 205              		.loc 1 75 5 is_stmt 1 view .LVU45
 206              		.loc 1 75 14 is_stmt 0 view .LVU46
 207 0006 8388     		ldrh	r3, [r0, #4]
 208 0008 9EB2     		uxth	r6, r3
 209              	.LVL18:
  76:flight/libraries/fifo_buffer.c ****     uint16_t buf_size  = buf->buf_size;
 210              		.loc 1 76 5 is_stmt 1 view .LVU47
 211              		.loc 1 76 14 is_stmt 0 view .LVU48
 212 000a 0789     		ldrh	r7, [r0, #8]
 213              	.LVL19:
  77:flight/libraries/fifo_buffer.c **** 
  78:flight/libraries/fifo_buffer.c ****     // get number of bytes available
  79:flight/libraries/fifo_buffer.c ****     uint16_t num_bytes = fifoBuf_getUsed(buf);
 214              		.loc 1 79 5 is_stmt 1 view .LVU49
 215              		.loc 1 79 26 is_stmt 0 view .LVU50
ARM GAS  C:\Users\geoma\AppData\Local\Temp\cc6X62Dw.s 			page 6


 216 000c FFF7FEFF 		bl	fifoBuf_getUsed
 217              	.LVL20:
  80:flight/libraries/fifo_buffer.c **** 
  81:flight/libraries/fifo_buffer.c ****     if (num_bytes > len) {
 218              		.loc 1 81 5 is_stmt 1 view .LVU51
 219              		.loc 1 81 8 is_stmt 0 view .LVU52
 220 0010 A042     		cmp	r0, r4
 221 0012 00D8     		bhi	.L9
  79:flight/libraries/fifo_buffer.c **** 
 222              		.loc 1 79 26 view .LVU53
 223 0014 0446     		mov	r4, r0
 224              	.L9:
 225              	.LVL21:
  82:flight/libraries/fifo_buffer.c ****         num_bytes = len;
  83:flight/libraries/fifo_buffer.c ****     }
  84:flight/libraries/fifo_buffer.c **** 
  85:flight/libraries/fifo_buffer.c ****     if (num_bytes < 1) {
 226              		.loc 1 85 5 is_stmt 1 view .LVU54
 227              		.loc 1 85 8 is_stmt 0 view .LVU55
 228 0016 34B1     		cbz	r4, .L8
  86:flight/libraries/fifo_buffer.c ****         return; // nothing to remove
  87:flight/libraries/fifo_buffer.c ****     }
  88:flight/libraries/fifo_buffer.c ****     rd += num_bytes;
 229              		.loc 1 88 5 is_stmt 1 view .LVU56
 230              		.loc 1 88 8 is_stmt 0 view .LVU57
 231 0018 3444     		add	r4, r4, r6
 232              	.LVL22:
 233              		.loc 1 88 8 view .LVU58
 234 001a A4B2     		uxth	r4, r4
 235              	.LVL23:
  89:flight/libraries/fifo_buffer.c ****     if (rd >= buf_size) {
 236              		.loc 1 89 5 is_stmt 1 view .LVU59
 237              		.loc 1 89 8 is_stmt 0 view .LVU60
 238 001c A742     		cmp	r7, r4
 239 001e 01D8     		bhi	.L11
  90:flight/libraries/fifo_buffer.c ****         rd -= buf_size;
 240              		.loc 1 90 9 is_stmt 1 view .LVU61
 241              		.loc 1 90 12 is_stmt 0 view .LVU62
 242 0020 E41B     		subs	r4, r4, r7
 243              	.LVL24:
 244              		.loc 1 90 12 view .LVU63
 245 0022 A4B2     		uxth	r4, r4
 246              	.LVL25:
 247              	.L11:
  91:flight/libraries/fifo_buffer.c ****     }
  92:flight/libraries/fifo_buffer.c **** 
  93:flight/libraries/fifo_buffer.c ****     buf->rd = rd;
 248              		.loc 1 93 5 is_stmt 1 view .LVU64
 249              		.loc 1 93 13 is_stmt 0 view .LVU65
 250 0024 AC80     		strh	r4, [r5, #4]	@ movhi
 251              	.LVL26:
 252              	.L8:
  94:flight/libraries/fifo_buffer.c **** }
 253              		.loc 1 94 1 view .LVU66
 254 0026 F8BD     		pop	{r3, r4, r5, r6, r7, pc}
 255              		.loc 1 94 1 view .LVU67
 256              		.cfi_endproc
ARM GAS  C:\Users\geoma\AppData\Local\Temp\cc6X62Dw.s 			page 7


 257              	.LFE4:
 259              		.section	.text.fifoBuf_getBytePeek,"ax",%progbits
 260              		.align	1
 261              		.global	fifoBuf_getBytePeek
 262              		.syntax unified
 263              		.thumb
 264              		.thumb_func
 266              	fifoBuf_getBytePeek:
 267              	.LVL27:
 268              	.LFB5:
  95:flight/libraries/fifo_buffer.c **** 
  96:flight/libraries/fifo_buffer.c **** int16_t fifoBuf_getBytePeek(t_fifo_buffer *buf)
  97:flight/libraries/fifo_buffer.c **** { // get a data byte from the buffer without removing it
 269              		.loc 1 97 1 is_stmt 1 view -0
 270              		.cfi_startproc
 271              		@ args = 0, pretend = 0, frame = 0
 272              		@ frame_needed = 0, uses_anonymous_args = 0
 273              		.loc 1 97 1 is_stmt 0 view .LVU69
 274 0000 38B5     		push	{r3, r4, r5, lr}
 275              	.LCFI2:
 276              		.cfi_def_cfa_offset 16
 277              		.cfi_offset 3, -16
 278              		.cfi_offset 4, -12
 279              		.cfi_offset 5, -8
 280              		.cfi_offset 14, -4
 281 0002 0446     		mov	r4, r0
  98:flight/libraries/fifo_buffer.c ****     uint16_t rd = buf->rd;
 282              		.loc 1 98 5 is_stmt 1 view .LVU70
 283              		.loc 1 98 14 is_stmt 0 view .LVU71
 284 0004 8388     		ldrh	r3, [r0, #4]
 285 0006 9DB2     		uxth	r5, r3
 286              	.LVL28:
  99:flight/libraries/fifo_buffer.c **** 
 100:flight/libraries/fifo_buffer.c ****     // get number of bytes available
 101:flight/libraries/fifo_buffer.c ****     uint16_t num_bytes = fifoBuf_getUsed(buf);
 287              		.loc 1 101 5 is_stmt 1 view .LVU72
 288              		.loc 1 101 26 is_stmt 0 view .LVU73
 289 0008 FFF7FEFF 		bl	fifoBuf_getUsed
 290              	.LVL29:
 102:flight/libraries/fifo_buffer.c **** 
 103:flight/libraries/fifo_buffer.c ****     if (num_bytes < 1) {
 291              		.loc 1 103 5 is_stmt 1 view .LVU74
 292              		.loc 1 103 8 is_stmt 0 view .LVU75
 293 000c 10B1     		cbz	r0, .L15
 104:flight/libraries/fifo_buffer.c ****         return -1; // no byte retuened
 105:flight/libraries/fifo_buffer.c ****     }
 106:flight/libraries/fifo_buffer.c ****     return buf->buf_ptr[rd]; // return the byte
 294              		.loc 1 106 5 is_stmt 1 view .LVU76
 295              		.loc 1 106 15 is_stmt 0 view .LVU77
 296 000e 2368     		ldr	r3, [r4]
 297              		.loc 1 106 24 view .LVU78
 298 0010 585D     		ldrb	r0, [r3, r5]	@ zero_extendqisi2
 299              	.LVL30:
 300              	.L14:
 107:flight/libraries/fifo_buffer.c **** }
 301              		.loc 1 107 1 view .LVU79
 302 0012 38BD     		pop	{r3, r4, r5, pc}
ARM GAS  C:\Users\geoma\AppData\Local\Temp\cc6X62Dw.s 			page 8


 303              	.LVL31:
 304              	.L15:
 104:flight/libraries/fifo_buffer.c ****         return -1; // no byte retuened
 305              		.loc 1 104 16 view .LVU80
 306 0014 4FF0FF30 		mov	r0, #-1
 307              	.LVL32:
 104:flight/libraries/fifo_buffer.c ****         return -1; // no byte retuened
 308              		.loc 1 104 16 view .LVU81
 309 0018 FBE7     		b	.L14
 310              		.cfi_endproc
 311              	.LFE5:
 313              		.section	.text.fifoBuf_getByte,"ax",%progbits
 314              		.align	1
 315              		.global	fifoBuf_getByte
 316              		.syntax unified
 317              		.thumb
 318              		.thumb_func
 320              	fifoBuf_getByte:
 321              	.LVL33:
 322              	.LFB6:
 108:flight/libraries/fifo_buffer.c **** 
 109:flight/libraries/fifo_buffer.c **** int16_t fifoBuf_getByte(t_fifo_buffer *buf)
 110:flight/libraries/fifo_buffer.c **** { // get a data byte from the buffer
 323              		.loc 1 110 1 is_stmt 1 view -0
 324              		.cfi_startproc
 325              		@ args = 0, pretend = 0, frame = 0
 326              		@ frame_needed = 0, uses_anonymous_args = 0
 327              		.loc 1 110 1 is_stmt 0 view .LVU83
 328 0000 F8B5     		push	{r3, r4, r5, r6, r7, lr}
 329              	.LCFI3:
 330              		.cfi_def_cfa_offset 24
 331              		.cfi_offset 3, -24
 332              		.cfi_offset 4, -20
 333              		.cfi_offset 5, -16
 334              		.cfi_offset 6, -12
 335              		.cfi_offset 7, -8
 336              		.cfi_offset 14, -4
 337 0002 0546     		mov	r5, r0
 111:flight/libraries/fifo_buffer.c ****     uint16_t rd        = buf->rd;
 338              		.loc 1 111 5 is_stmt 1 view .LVU84
 339              		.loc 1 111 14 is_stmt 0 view .LVU85
 340 0004 8488     		ldrh	r4, [r0, #4]
 341              	.LVL34:
 112:flight/libraries/fifo_buffer.c ****     uint16_t buf_size  = buf->buf_size;
 342              		.loc 1 112 5 is_stmt 1 view .LVU86
 343              		.loc 1 112 14 is_stmt 0 view .LVU87
 344 0006 0689     		ldrh	r6, [r0, #8]
 345              	.LVL35:
 113:flight/libraries/fifo_buffer.c ****     uint8_t *buff      = buf->buf_ptr;
 346              		.loc 1 113 5 is_stmt 1 view .LVU88
 347              		.loc 1 113 14 is_stmt 0 view .LVU89
 348 0008 0768     		ldr	r7, [r0]
 349              	.LVL36:
 114:flight/libraries/fifo_buffer.c **** 
 115:flight/libraries/fifo_buffer.c ****     // get number of bytes available
 116:flight/libraries/fifo_buffer.c ****     uint16_t num_bytes = fifoBuf_getUsed(buf);
 350              		.loc 1 116 5 is_stmt 1 view .LVU90
ARM GAS  C:\Users\geoma\AppData\Local\Temp\cc6X62Dw.s 			page 9


 351              		.loc 1 116 26 is_stmt 0 view .LVU91
 352 000a FFF7FEFF 		bl	fifoBuf_getUsed
 353              	.LVL37:
 117:flight/libraries/fifo_buffer.c **** 
 118:flight/libraries/fifo_buffer.c ****     if (num_bytes < 1) {
 354              		.loc 1 118 5 is_stmt 1 view .LVU92
 355              		.loc 1 118 8 is_stmt 0 view .LVU93
 356 000e 48B1     		cbz	r0, .L20
 357 0010 A4B2     		uxth	r4, r4
 119:flight/libraries/fifo_buffer.c ****         return -1; // no byte returned
 120:flight/libraries/fifo_buffer.c ****     }
 121:flight/libraries/fifo_buffer.c ****     uint8_t b = buff[rd];
 358              		.loc 1 121 5 is_stmt 1 view .LVU94
 359              		.loc 1 121 13 is_stmt 0 view .LVU95
 360 0012 385D     		ldrb	r0, [r7, r4]	@ zero_extendqisi2
 361              	.LVL38:
 122:flight/libraries/fifo_buffer.c ****     if (++rd >= buf_size) {
 362              		.loc 1 122 5 is_stmt 1 view .LVU96
 363              		.loc 1 122 8 is_stmt 0 view .LVU97
 364 0014 631C     		adds	r3, r4, #1
 365 0016 9BB2     		uxth	r3, r3
 366              	.LVL39:
 367              		.loc 1 122 8 view .LVU98
 368 0018 9E42     		cmp	r6, r3
 369 001a 00D8     		bhi	.L19
 123:flight/libraries/fifo_buffer.c ****         rd = 0;
 370              		.loc 1 123 12 view .LVU99
 371 001c 0023     		movs	r3, #0
 372              	.LVL40:
 373              	.L19:
 124:flight/libraries/fifo_buffer.c ****     }
 125:flight/libraries/fifo_buffer.c **** 
 126:flight/libraries/fifo_buffer.c ****     buf->rd = rd;
 374              		.loc 1 126 5 is_stmt 1 view .LVU100
 375              		.loc 1 126 13 is_stmt 0 view .LVU101
 376 001e AB80     		strh	r3, [r5, #4]	@ movhi
 127:flight/libraries/fifo_buffer.c **** 
 128:flight/libraries/fifo_buffer.c ****     return b; // return the byte
 377              		.loc 1 128 5 is_stmt 1 view .LVU102
 378              		.loc 1 128 12 is_stmt 0 view .LVU103
 379 0020 00B2     		sxth	r0, r0
 380              	.LVL41:
 381              	.L18:
 129:flight/libraries/fifo_buffer.c **** }
 382              		.loc 1 129 1 view .LVU104
 383 0022 F8BD     		pop	{r3, r4, r5, r6, r7, pc}
 384              	.LVL42:
 385              	.L20:
 119:flight/libraries/fifo_buffer.c ****     }
 386              		.loc 1 119 16 view .LVU105
 387 0024 4FF0FF30 		mov	r0, #-1
 388              	.LVL43:
 119:flight/libraries/fifo_buffer.c ****     }
 389              		.loc 1 119 16 view .LVU106
 390 0028 FBE7     		b	.L18
 391              		.cfi_endproc
 392              	.LFE6:
ARM GAS  C:\Users\geoma\AppData\Local\Temp\cc6X62Dw.s 			page 10


 394              		.section	.text.fifoBuf_getDataPeek,"ax",%progbits
 395              		.align	1
 396              		.global	fifoBuf_getDataPeek
 397              		.syntax unified
 398              		.thumb
 399              		.thumb_func
 401              	fifoBuf_getDataPeek:
 402              	.LVL44:
 403              	.LFB7:
 130:flight/libraries/fifo_buffer.c **** 
 131:flight/libraries/fifo_buffer.c **** uint16_t fifoBuf_getDataPeek(t_fifo_buffer *buf, void *data, uint16_t len)
 132:flight/libraries/fifo_buffer.c **** { // get data from the buffer without removing it
 404              		.loc 1 132 1 is_stmt 1 view -0
 405              		.cfi_startproc
 406              		@ args = 0, pretend = 0, frame = 0
 407              		@ frame_needed = 0, uses_anonymous_args = 0
 408              		.loc 1 132 1 is_stmt 0 view .LVU108
 409 0000 2DE9F047 		push	{r4, r5, r6, r7, r8, r9, r10, lr}
 410              	.LCFI4:
 411              		.cfi_def_cfa_offset 32
 412              		.cfi_offset 4, -32
 413              		.cfi_offset 5, -28
 414              		.cfi_offset 6, -24
 415              		.cfi_offset 7, -20
 416              		.cfi_offset 8, -16
 417              		.cfi_offset 9, -12
 418              		.cfi_offset 10, -8
 419              		.cfi_offset 14, -4
 420 0004 8846     		mov	r8, r1
 421 0006 1546     		mov	r5, r2
 133:flight/libraries/fifo_buffer.c ****     uint16_t rd        = buf->rd;
 422              		.loc 1 133 5 is_stmt 1 view .LVU109
 423              		.loc 1 133 14 is_stmt 0 view .LVU110
 424 0008 8488     		ldrh	r4, [r0, #4]
 425 000a 1FFA84FA 		uxth	r10, r4
 426              	.LVL45:
 134:flight/libraries/fifo_buffer.c ****     uint16_t buf_size  = buf->buf_size;
 427              		.loc 1 134 5 is_stmt 1 view .LVU111
 428              		.loc 1 134 14 is_stmt 0 view .LVU112
 429 000e 0789     		ldrh	r7, [r0, #8]
 430              	.LVL46:
 135:flight/libraries/fifo_buffer.c ****     uint8_t *buff      = buf->buf_ptr;
 431              		.loc 1 135 5 is_stmt 1 view .LVU113
 432              		.loc 1 135 14 is_stmt 0 view .LVU114
 433 0010 D0F80090 		ldr	r9, [r0]
 434              	.LVL47:
 136:flight/libraries/fifo_buffer.c **** 
 137:flight/libraries/fifo_buffer.c ****     // get number of bytes available
 138:flight/libraries/fifo_buffer.c ****     uint16_t num_bytes = fifoBuf_getUsed(buf);
 435              		.loc 1 138 5 is_stmt 1 view .LVU115
 436              		.loc 1 138 26 is_stmt 0 view .LVU116
 437 0014 FFF7FEFF 		bl	fifoBuf_getUsed
 438              	.LVL48:
 139:flight/libraries/fifo_buffer.c **** 
 140:flight/libraries/fifo_buffer.c ****     if (num_bytes > len) {
 439              		.loc 1 140 5 is_stmt 1 view .LVU117
 440              		.loc 1 140 8 is_stmt 0 view .LVU118
ARM GAS  C:\Users\geoma\AppData\Local\Temp\cc6X62Dw.s 			page 11


 441 0018 A842     		cmp	r0, r5
 442 001a 00D8     		bhi	.L24
 138:flight/libraries/fifo_buffer.c **** 
 443              		.loc 1 138 26 view .LVU119
 444 001c 0546     		mov	r5, r0
 445              	.L24:
 446              	.LVL49:
 141:flight/libraries/fifo_buffer.c ****         num_bytes = len;
 142:flight/libraries/fifo_buffer.c ****     }
 143:flight/libraries/fifo_buffer.c **** 
 144:flight/libraries/fifo_buffer.c ****     if (num_bytes < 1) {
 447              		.loc 1 144 5 is_stmt 1 view .LVU120
 448              		.loc 1 144 8 is_stmt 0 view .LVU121
 449 001e 0DB3     		cbz	r5, .L32
 145:flight/libraries/fifo_buffer.c ****         return 0; // return number of bytes copied
 146:flight/libraries/fifo_buffer.c ****     }
 147:flight/libraries/fifo_buffer.c ****     uint8_t *p = (uint8_t *)data;
 148:flight/libraries/fifo_buffer.c ****     uint16_t i = 0;
 450              		.loc 1 148 14 view .LVU122
 451 0020 0026     		movs	r6, #0
 452              	.LVL50:
 453              	.L26:
 149:flight/libraries/fifo_buffer.c **** 
 150:flight/libraries/fifo_buffer.c ****     while (num_bytes > 0) {
 454              		.loc 1 150 11 is_stmt 1 view .LVU123
 455 0022 05B3     		cbz	r5, .L25
 456              	.LBB2:
 151:flight/libraries/fifo_buffer.c ****         uint16_t block_len = buf_size - rd;
 457              		.loc 1 151 9 view .LVU124
 458              		.loc 1 151 18 is_stmt 0 view .LVU125
 459 0024 A7EB0A04 		sub	r4, r7, r10
 460 0028 A4B2     		uxth	r4, r4
 461              	.LVL51:
 152:flight/libraries/fifo_buffer.c ****         if (block_len > num_bytes) {
 462              		.loc 1 152 9 is_stmt 1 view .LVU126
 463              		.loc 1 152 12 is_stmt 0 view .LVU127
 464 002a A542     		cmp	r5, r4
 465 002c 00D2     		bcs	.L27
 153:flight/libraries/fifo_buffer.c ****             block_len = num_bytes;
 466              		.loc 1 153 23 view .LVU128
 467 002e 2C46     		mov	r4, r5
 468              	.LVL52:
 469              	.L27:
 154:flight/libraries/fifo_buffer.c ****         }
 155:flight/libraries/fifo_buffer.c ****         if (block_len == 1) {
 470              		.loc 1 155 9 is_stmt 1 view .LVU129
 471              		.loc 1 155 12 is_stmt 0 view .LVU130
 472 0030 012C     		cmp	r4, #1
 473 0032 0FD1     		bne	.L28
 156:flight/libraries/fifo_buffer.c ****             *((uint8_t *)(p + i)) = *((uint8_t *)(buff + rd));
 474              		.loc 1 156 13 is_stmt 1 view .LVU131
 475              		.loc 1 156 37 is_stmt 0 view .LVU132
 476 0034 19F80A30 		ldrb	r3, [r9, r10]	@ zero_extendqisi2
 477              		.loc 1 156 35 view .LVU133
 478 0038 08F80630 		strb	r3, [r8, r6]
 479              	.L29:
 157:flight/libraries/fifo_buffer.c ****         } else {
ARM GAS  C:\Users\geoma\AppData\Local\Temp\cc6X62Dw.s 			page 12


 158:flight/libraries/fifo_buffer.c ****             memcpy(p + i, buff + rd, block_len);
 159:flight/libraries/fifo_buffer.c ****         }
 160:flight/libraries/fifo_buffer.c ****         i  += block_len;
 480              		.loc 1 160 9 is_stmt 1 view .LVU134
 481              		.loc 1 160 12 is_stmt 0 view .LVU135
 482 003c 2644     		add	r6, r6, r4
 483              	.LVL53:
 484              		.loc 1 160 12 view .LVU136
 485 003e B6B2     		uxth	r6, r6
 486              	.LVL54:
 161:flight/libraries/fifo_buffer.c ****         num_bytes -= block_len;
 487              		.loc 1 161 9 is_stmt 1 view .LVU137
 488              		.loc 1 161 19 is_stmt 0 view .LVU138
 489 0040 2D1B     		subs	r5, r5, r4
 490              	.LVL55:
 491              		.loc 1 161 19 view .LVU139
 492 0042 ADB2     		uxth	r5, r5
 493              	.LVL56:
 162:flight/libraries/fifo_buffer.c ****         rd += block_len;
 494              		.loc 1 162 9 is_stmt 1 view .LVU140
 495              		.loc 1 162 12 is_stmt 0 view .LVU141
 496 0044 5444     		add	r4, r4, r10
 497              	.LVL57:
 498              		.loc 1 162 12 view .LVU142
 499 0046 1FFA84FA 		uxth	r10, r4
 500              	.LVL58:
 163:flight/libraries/fifo_buffer.c ****         if (rd >= buf_size) {
 501              		.loc 1 163 9 is_stmt 1 view .LVU143
 502              		.loc 1 163 12 is_stmt 0 view .LVU144
 503 004a 5745     		cmp	r7, r10
 504 004c E9D8     		bhi	.L26
 164:flight/libraries/fifo_buffer.c ****             rd = 0;
 505              		.loc 1 164 16 view .LVU145
 506 004e 4FF0000A 		mov	r10, #0
 507              	.LVL59:
 508              		.loc 1 164 16 view .LVU146
 509 0052 E6E7     		b	.L26
 510              	.LVL60:
 511              	.L28:
 158:flight/libraries/fifo_buffer.c ****         }
 512              		.loc 1 158 13 is_stmt 1 view .LVU147
 513 0054 2246     		mov	r2, r4
 514 0056 09EB0A01 		add	r1, r9, r10
 515 005a 08EB0600 		add	r0, r8, r6
 516 005e FFF7FEFF 		bl	memcpy
 517              	.LVL61:
 518 0062 EBE7     		b	.L29
 519              	.LVL62:
 520              	.L32:
 158:flight/libraries/fifo_buffer.c ****         }
 521              		.loc 1 158 13 is_stmt 0 view .LVU148
 522              	.LBE2:
 145:flight/libraries/fifo_buffer.c ****     }
 523              		.loc 1 145 16 view .LVU149
 524 0064 2E46     		mov	r6, r5
 525              	.L25:
 165:flight/libraries/fifo_buffer.c ****         }
ARM GAS  C:\Users\geoma\AppData\Local\Temp\cc6X62Dw.s 			page 13


 166:flight/libraries/fifo_buffer.c ****     }
 167:flight/libraries/fifo_buffer.c **** 
 168:flight/libraries/fifo_buffer.c ****     return i; // return number of bytes copied
 169:flight/libraries/fifo_buffer.c **** }
 526              		.loc 1 169 1 view .LVU150
 527 0066 3046     		mov	r0, r6
 528 0068 BDE8F087 		pop	{r4, r5, r6, r7, r8, r9, r10, pc}
 529              		.loc 1 169 1 view .LVU151
 530              		.cfi_endproc
 531              	.LFE7:
 533              		.section	.text.fifoBuf_getData,"ax",%progbits
 534              		.align	1
 535              		.global	fifoBuf_getData
 536              		.syntax unified
 537              		.thumb
 538              		.thumb_func
 540              	fifoBuf_getData:
 541              	.LVL63:
 542              	.LFB8:
 170:flight/libraries/fifo_buffer.c **** 
 171:flight/libraries/fifo_buffer.c **** uint16_t fifoBuf_getData(t_fifo_buffer *buf, void *data, uint16_t len)
 172:flight/libraries/fifo_buffer.c **** { // get data from our rx buffer
 543              		.loc 1 172 1 is_stmt 1 view -0
 544              		.cfi_startproc
 545              		@ args = 0, pretend = 0, frame = 0
 546              		@ frame_needed = 0, uses_anonymous_args = 0
 547              		.loc 1 172 1 is_stmt 0 view .LVU153
 548 0000 2DE9F84F 		push	{r3, r4, r5, r6, r7, r8, r9, r10, fp, lr}
 549              	.LCFI5:
 550              		.cfi_def_cfa_offset 40
 551              		.cfi_offset 3, -40
 552              		.cfi_offset 4, -36
 553              		.cfi_offset 5, -32
 554              		.cfi_offset 6, -28
 555              		.cfi_offset 7, -24
 556              		.cfi_offset 8, -20
 557              		.cfi_offset 9, -16
 558              		.cfi_offset 10, -12
 559              		.cfi_offset 11, -8
 560              		.cfi_offset 14, -4
 561 0004 8146     		mov	r9, r0
 562 0006 8846     		mov	r8, r1
 563 0008 1546     		mov	r5, r2
 173:flight/libraries/fifo_buffer.c ****     uint16_t rd        = buf->rd;
 564              		.loc 1 173 5 is_stmt 1 view .LVU154
 565              		.loc 1 173 14 is_stmt 0 view .LVU155
 566 000a 8488     		ldrh	r4, [r0, #4]
 567 000c 1FFA84FB 		uxth	fp, r4
 568              	.LVL64:
 174:flight/libraries/fifo_buffer.c ****     uint16_t buf_size  = buf->buf_size;
 569              		.loc 1 174 5 is_stmt 1 view .LVU156
 570              		.loc 1 174 14 is_stmt 0 view .LVU157
 571 0010 0789     		ldrh	r7, [r0, #8]
 572              	.LVL65:
 175:flight/libraries/fifo_buffer.c ****     uint8_t *buff      = buf->buf_ptr;
 573              		.loc 1 175 5 is_stmt 1 view .LVU158
 574              		.loc 1 175 14 is_stmt 0 view .LVU159
ARM GAS  C:\Users\geoma\AppData\Local\Temp\cc6X62Dw.s 			page 14


 575 0012 D0F800A0 		ldr	r10, [r0]
 576              	.LVL66:
 176:flight/libraries/fifo_buffer.c **** 
 177:flight/libraries/fifo_buffer.c ****     // get number of bytes available
 178:flight/libraries/fifo_buffer.c ****     uint16_t num_bytes = fifoBuf_getUsed(buf);
 577              		.loc 1 178 5 is_stmt 1 view .LVU160
 578              		.loc 1 178 26 is_stmt 0 view .LVU161
 579 0016 FFF7FEFF 		bl	fifoBuf_getUsed
 580              	.LVL67:
 179:flight/libraries/fifo_buffer.c **** 
 180:flight/libraries/fifo_buffer.c ****     if (num_bytes > len) {
 581              		.loc 1 180 5 is_stmt 1 view .LVU162
 582              		.loc 1 180 8 is_stmt 0 view .LVU163
 583 001a A842     		cmp	r0, r5
 584 001c 00D8     		bhi	.L37
 178:flight/libraries/fifo_buffer.c **** 
 585              		.loc 1 178 26 view .LVU164
 586 001e 0546     		mov	r5, r0
 587              	.L37:
 588              	.LVL68:
 181:flight/libraries/fifo_buffer.c ****         num_bytes = len;
 182:flight/libraries/fifo_buffer.c ****     }
 183:flight/libraries/fifo_buffer.c **** 
 184:flight/libraries/fifo_buffer.c ****     if (num_bytes < 1) {
 589              		.loc 1 184 5 is_stmt 1 view .LVU165
 590              		.loc 1 184 8 is_stmt 0 view .LVU166
 591 0020 35B3     		cbz	r5, .L45
 185:flight/libraries/fifo_buffer.c ****         return 0; // return number of bytes copied
 186:flight/libraries/fifo_buffer.c ****     }
 187:flight/libraries/fifo_buffer.c ****     uint8_t *p = (uint8_t *)data;
 188:flight/libraries/fifo_buffer.c ****     uint16_t i = 0;
 592              		.loc 1 188 14 view .LVU167
 593 0022 0026     		movs	r6, #0
 594              	.LVL69:
 595              	.L39:
 189:flight/libraries/fifo_buffer.c **** 
 190:flight/libraries/fifo_buffer.c ****     while (num_bytes > 0) {
 596              		.loc 1 190 11 is_stmt 1 view .LVU168
 597 0024 FDB1     		cbz	r5, .L49
 598              	.LBB3:
 191:flight/libraries/fifo_buffer.c ****         uint16_t block_len = buf_size - rd;
 599              		.loc 1 191 9 view .LVU169
 600              		.loc 1 191 18 is_stmt 0 view .LVU170
 601 0026 A7EB0B04 		sub	r4, r7, fp
 602 002a A4B2     		uxth	r4, r4
 603              	.LVL70:
 192:flight/libraries/fifo_buffer.c ****         if (block_len > num_bytes) {
 604              		.loc 1 192 9 is_stmt 1 view .LVU171
 605              		.loc 1 192 12 is_stmt 0 view .LVU172
 606 002c A542     		cmp	r5, r4
 607 002e 00D2     		bcs	.L40
 193:flight/libraries/fifo_buffer.c ****             block_len = num_bytes;
 608              		.loc 1 193 23 view .LVU173
 609 0030 2C46     		mov	r4, r5
 610              	.LVL71:
 611              	.L40:
 194:flight/libraries/fifo_buffer.c ****         }
ARM GAS  C:\Users\geoma\AppData\Local\Temp\cc6X62Dw.s 			page 15


 195:flight/libraries/fifo_buffer.c ****         if (block_len == 1) {
 612              		.loc 1 195 9 is_stmt 1 view .LVU174
 613              		.loc 1 195 12 is_stmt 0 view .LVU175
 614 0032 012C     		cmp	r4, #1
 615 0034 0FD1     		bne	.L41
 196:flight/libraries/fifo_buffer.c ****             *((uint8_t *)(p + i)) = *((uint8_t *)(buff + rd));
 616              		.loc 1 196 13 is_stmt 1 view .LVU176
 617              		.loc 1 196 37 is_stmt 0 view .LVU177
 618 0036 1AF80B30 		ldrb	r3, [r10, fp]	@ zero_extendqisi2
 619              		.loc 1 196 35 view .LVU178
 620 003a 08F80630 		strb	r3, [r8, r6]
 621              	.L42:
 197:flight/libraries/fifo_buffer.c ****         } else {
 198:flight/libraries/fifo_buffer.c ****             memcpy(p + i, buff + rd, block_len);
 199:flight/libraries/fifo_buffer.c ****         }
 200:flight/libraries/fifo_buffer.c ****         i  += block_len;
 622              		.loc 1 200 9 is_stmt 1 view .LVU179
 623              		.loc 1 200 12 is_stmt 0 view .LVU180
 624 003e 2644     		add	r6, r6, r4
 625              	.LVL72:
 626              		.loc 1 200 12 view .LVU181
 627 0040 B6B2     		uxth	r6, r6
 628              	.LVL73:
 201:flight/libraries/fifo_buffer.c ****         num_bytes -= block_len;
 629              		.loc 1 201 9 is_stmt 1 view .LVU182
 630              		.loc 1 201 19 is_stmt 0 view .LVU183
 631 0042 2D1B     		subs	r5, r5, r4
 632              	.LVL74:
 633              		.loc 1 201 19 view .LVU184
 634 0044 ADB2     		uxth	r5, r5
 635              	.LVL75:
 202:flight/libraries/fifo_buffer.c ****         rd += block_len;
 636              		.loc 1 202 9 is_stmt 1 view .LVU185
 637              		.loc 1 202 12 is_stmt 0 view .LVU186
 638 0046 5C44     		add	r4, r4, fp
 639              	.LVL76:
 640              		.loc 1 202 12 view .LVU187
 641 0048 1FFA84FB 		uxth	fp, r4
 642              	.LVL77:
 203:flight/libraries/fifo_buffer.c ****         if (rd >= buf_size) {
 643              		.loc 1 203 9 is_stmt 1 view .LVU188
 644              		.loc 1 203 12 is_stmt 0 view .LVU189
 645 004c 5F45     		cmp	r7, fp
 646 004e E9D8     		bhi	.L39
 204:flight/libraries/fifo_buffer.c ****             rd = 0;
 647              		.loc 1 204 16 view .LVU190
 648 0050 4FF0000B 		mov	fp, #0
 649              	.LVL78:
 650              		.loc 1 204 16 view .LVU191
 651 0054 E6E7     		b	.L39
 652              	.LVL79:
 653              	.L41:
 198:flight/libraries/fifo_buffer.c ****         }
 654              		.loc 1 198 13 is_stmt 1 view .LVU192
 655 0056 2246     		mov	r2, r4
 656 0058 0AEB0B01 		add	r1, r10, fp
 657 005c 08EB0600 		add	r0, r8, r6
ARM GAS  C:\Users\geoma\AppData\Local\Temp\cc6X62Dw.s 			page 16


 658 0060 FFF7FEFF 		bl	memcpy
 659              	.LVL80:
 660 0064 EBE7     		b	.L42
 661              	.LVL81:
 662              	.L49:
 198:flight/libraries/fifo_buffer.c ****         }
 663              		.loc 1 198 13 is_stmt 0 view .LVU193
 664              	.LBE3:
 205:flight/libraries/fifo_buffer.c ****         }
 206:flight/libraries/fifo_buffer.c ****     }
 207:flight/libraries/fifo_buffer.c **** 
 208:flight/libraries/fifo_buffer.c ****     buf->rd = rd;
 665              		.loc 1 208 5 is_stmt 1 view .LVU194
 666              		.loc 1 208 13 is_stmt 0 view .LVU195
 667 0066 A9F804B0 		strh	fp, [r9, #4]	@ movhi
 209:flight/libraries/fifo_buffer.c **** 
 210:flight/libraries/fifo_buffer.c ****     return i; // return number of bytes copied
 668              		.loc 1 210 5 is_stmt 1 view .LVU196
 669              	.LVL82:
 670              	.L38:
 211:flight/libraries/fifo_buffer.c **** }
 671              		.loc 1 211 1 is_stmt 0 view .LVU197
 672 006a 3046     		mov	r0, r6
 673 006c BDE8F88F 		pop	{r3, r4, r5, r6, r7, r8, r9, r10, fp, pc}
 674              	.LVL83:
 675              	.L45:
 185:flight/libraries/fifo_buffer.c ****     }
 676              		.loc 1 185 16 view .LVU198
 677 0070 2E46     		mov	r6, r5
 678 0072 FAE7     		b	.L38
 679              		.cfi_endproc
 680              	.LFE8:
 682              		.section	.text.fifoBuf_putByte,"ax",%progbits
 683              		.align	1
 684              		.global	fifoBuf_putByte
 685              		.syntax unified
 686              		.thumb
 687              		.thumb_func
 689              	fifoBuf_putByte:
 690              	.LVL84:
 691              	.LFB9:
 212:flight/libraries/fifo_buffer.c **** 
 213:flight/libraries/fifo_buffer.c **** uint16_t fifoBuf_putByte(t_fifo_buffer *buf, const uint8_t b)
 214:flight/libraries/fifo_buffer.c **** { // add a data byte to the buffer
 692              		.loc 1 214 1 is_stmt 1 view -0
 693              		.cfi_startproc
 694              		@ args = 0, pretend = 0, frame = 0
 695              		@ frame_needed = 0, uses_anonymous_args = 0
 696              		.loc 1 214 1 is_stmt 0 view .LVU200
 697 0000 2DE9F041 		push	{r4, r5, r6, r7, r8, lr}
 698              	.LCFI6:
 699              		.cfi_def_cfa_offset 24
 700              		.cfi_offset 4, -24
 701              		.cfi_offset 5, -20
 702              		.cfi_offset 6, -16
 703              		.cfi_offset 7, -12
 704              		.cfi_offset 8, -8
ARM GAS  C:\Users\geoma\AppData\Local\Temp\cc6X62Dw.s 			page 17


 705              		.cfi_offset 14, -4
 706 0004 0546     		mov	r5, r0
 707 0006 0E46     		mov	r6, r1
 215:flight/libraries/fifo_buffer.c ****     uint16_t wr        = buf->wr;
 708              		.loc 1 215 5 is_stmt 1 view .LVU201
 709              		.loc 1 215 14 is_stmt 0 view .LVU202
 710 0008 C488     		ldrh	r4, [r0, #6]
 711              	.LVL85:
 216:flight/libraries/fifo_buffer.c ****     uint16_t buf_size  = buf->buf_size;
 712              		.loc 1 216 5 is_stmt 1 view .LVU203
 713              		.loc 1 216 14 is_stmt 0 view .LVU204
 714 000a 0789     		ldrh	r7, [r0, #8]
 715              	.LVL86:
 217:flight/libraries/fifo_buffer.c ****     uint8_t *buff      = buf->buf_ptr;
 716              		.loc 1 217 5 is_stmt 1 view .LVU205
 717              		.loc 1 217 14 is_stmt 0 view .LVU206
 718 000c D0F80080 		ldr	r8, [r0]
 719              	.LVL87:
 218:flight/libraries/fifo_buffer.c **** 
 219:flight/libraries/fifo_buffer.c ****     uint16_t num_bytes = fifoBuf_getFree(buf);
 720              		.loc 1 219 5 is_stmt 1 view .LVU207
 721              		.loc 1 219 26 is_stmt 0 view .LVU208
 722 0010 FFF7FEFF 		bl	fifoBuf_getFree
 723              	.LVL88:
 220:flight/libraries/fifo_buffer.c **** 
 221:flight/libraries/fifo_buffer.c ****     if (num_bytes < 1) {
 724              		.loc 1 221 5 is_stmt 1 view .LVU209
 725              		.loc 1 221 8 is_stmt 0 view .LVU210
 726 0014 48B1     		cbz	r0, .L51
 727 0016 A4B2     		uxth	r4, r4
 222:flight/libraries/fifo_buffer.c ****         return 0;
 223:flight/libraries/fifo_buffer.c ****     }
 224:flight/libraries/fifo_buffer.c **** 
 225:flight/libraries/fifo_buffer.c ****     buff[wr] = b;
 728              		.loc 1 225 5 is_stmt 1 view .LVU211
 729              		.loc 1 225 14 is_stmt 0 view .LVU212
 730 0018 08F80460 		strb	r6, [r8, r4]
 226:flight/libraries/fifo_buffer.c ****     if (++wr >= buf_size) {
 731              		.loc 1 226 5 is_stmt 1 view .LVU213
 732              		.loc 1 226 8 is_stmt 0 view .LVU214
 733 001c 0134     		adds	r4, r4, #1
 734              	.LVL89:
 735              		.loc 1 226 8 view .LVU215
 736 001e A4B2     		uxth	r4, r4
 737              	.LVL90:
 738              		.loc 1 226 8 view .LVU216
 739 0020 A742     		cmp	r7, r4
 740 0022 00D8     		bhi	.L52
 227:flight/libraries/fifo_buffer.c ****         wr = 0;
 741              		.loc 1 227 12 view .LVU217
 742 0024 0024     		movs	r4, #0
 743              	.LVL91:
 744              	.L52:
 228:flight/libraries/fifo_buffer.c ****     }
 229:flight/libraries/fifo_buffer.c **** 
 230:flight/libraries/fifo_buffer.c ****     buf->wr = wr;
 745              		.loc 1 230 5 is_stmt 1 view .LVU218
ARM GAS  C:\Users\geoma\AppData\Local\Temp\cc6X62Dw.s 			page 18


 746              		.loc 1 230 13 is_stmt 0 view .LVU219
 747 0026 EC80     		strh	r4, [r5, #6]	@ movhi
 231:flight/libraries/fifo_buffer.c **** 
 232:flight/libraries/fifo_buffer.c ****     return 1; // return number of bytes copied
 748              		.loc 1 232 5 is_stmt 1 view .LVU220
 749              		.loc 1 232 12 is_stmt 0 view .LVU221
 750 0028 0120     		movs	r0, #1
 751              	.LVL92:
 752              	.L51:
 233:flight/libraries/fifo_buffer.c **** }
 753              		.loc 1 233 1 view .LVU222
 754 002a BDE8F081 		pop	{r4, r5, r6, r7, r8, pc}
 755              		.loc 1 233 1 view .LVU223
 756              		.cfi_endproc
 757              	.LFE9:
 759              		.section	.text.fifoBuf_putData,"ax",%progbits
 760              		.align	1
 761              		.global	fifoBuf_putData
 762              		.syntax unified
 763              		.thumb
 764              		.thumb_func
 766              	fifoBuf_putData:
 767              	.LVL93:
 768              	.LFB10:
 234:flight/libraries/fifo_buffer.c **** 
 235:flight/libraries/fifo_buffer.c **** uint16_t fifoBuf_putData(t_fifo_buffer *buf, const void *data, uint16_t len)
 236:flight/libraries/fifo_buffer.c **** { // add data to the buffer
 769              		.loc 1 236 1 is_stmt 1 view -0
 770              		.cfi_startproc
 771              		@ args = 0, pretend = 0, frame = 0
 772              		@ frame_needed = 0, uses_anonymous_args = 0
 773              		.loc 1 236 1 is_stmt 0 view .LVU225
 774 0000 2DE9F84F 		push	{r3, r4, r5, r6, r7, r8, r9, r10, fp, lr}
 775              	.LCFI7:
 776              		.cfi_def_cfa_offset 40
 777              		.cfi_offset 3, -40
 778              		.cfi_offset 4, -36
 779              		.cfi_offset 5, -32
 780              		.cfi_offset 6, -28
 781              		.cfi_offset 7, -24
 782              		.cfi_offset 8, -20
 783              		.cfi_offset 9, -16
 784              		.cfi_offset 10, -12
 785              		.cfi_offset 11, -8
 786              		.cfi_offset 14, -4
 787 0004 8146     		mov	r9, r0
 788 0006 8846     		mov	r8, r1
 789 0008 1546     		mov	r5, r2
 237:flight/libraries/fifo_buffer.c ****     uint16_t wr        = buf->wr;
 790              		.loc 1 237 5 is_stmt 1 view .LVU226
 791              		.loc 1 237 14 is_stmt 0 view .LVU227
 792 000a C488     		ldrh	r4, [r0, #6]
 793 000c 1FFA84FB 		uxth	fp, r4
 794              	.LVL94:
 238:flight/libraries/fifo_buffer.c ****     uint16_t buf_size  = buf->buf_size;
 795              		.loc 1 238 5 is_stmt 1 view .LVU228
 796              		.loc 1 238 14 is_stmt 0 view .LVU229
ARM GAS  C:\Users\geoma\AppData\Local\Temp\cc6X62Dw.s 			page 19


 797 0010 0789     		ldrh	r7, [r0, #8]
 798              	.LVL95:
 239:flight/libraries/fifo_buffer.c ****     uint8_t *buff      = buf->buf_ptr;
 799              		.loc 1 239 5 is_stmt 1 view .LVU230
 800              		.loc 1 239 14 is_stmt 0 view .LVU231
 801 0012 D0F800A0 		ldr	r10, [r0]
 802              	.LVL96:
 240:flight/libraries/fifo_buffer.c **** 
 241:flight/libraries/fifo_buffer.c ****     uint16_t num_bytes = fifoBuf_getFree(buf);
 803              		.loc 1 241 5 is_stmt 1 view .LVU232
 804              		.loc 1 241 26 is_stmt 0 view .LVU233
 805 0016 FFF7FEFF 		bl	fifoBuf_getFree
 806              	.LVL97:
 242:flight/libraries/fifo_buffer.c **** 
 243:flight/libraries/fifo_buffer.c ****     if (num_bytes > len) {
 807              		.loc 1 243 5 is_stmt 1 view .LVU234
 808              		.loc 1 243 8 is_stmt 0 view .LVU235
 809 001a A842     		cmp	r0, r5
 810 001c 00D8     		bhi	.L56
 241:flight/libraries/fifo_buffer.c **** 
 811              		.loc 1 241 26 view .LVU236
 812 001e 0546     		mov	r5, r0
 813              	.L56:
 814              	.LVL98:
 244:flight/libraries/fifo_buffer.c ****         num_bytes = len;
 245:flight/libraries/fifo_buffer.c ****     }
 246:flight/libraries/fifo_buffer.c **** 
 247:flight/libraries/fifo_buffer.c ****     if (num_bytes < 1) {
 815              		.loc 1 247 5 is_stmt 1 view .LVU237
 816              		.loc 1 247 8 is_stmt 0 view .LVU238
 817 0020 35B3     		cbz	r5, .L64
 248:flight/libraries/fifo_buffer.c ****         return 0; // return number of bytes copied
 249:flight/libraries/fifo_buffer.c ****     }
 250:flight/libraries/fifo_buffer.c ****     uint8_t *p = (uint8_t *)data;
 251:flight/libraries/fifo_buffer.c ****     uint16_t i = 0;
 818              		.loc 1 251 14 view .LVU239
 819 0022 0026     		movs	r6, #0
 820              	.LVL99:
 821              	.L58:
 252:flight/libraries/fifo_buffer.c **** 
 253:flight/libraries/fifo_buffer.c ****     while (num_bytes > 0) {
 822              		.loc 1 253 11 is_stmt 1 view .LVU240
 823 0024 FDB1     		cbz	r5, .L68
 824              	.LBB4:
 254:flight/libraries/fifo_buffer.c ****         uint16_t block_len = buf_size - wr;
 825              		.loc 1 254 9 view .LVU241
 826              		.loc 1 254 18 is_stmt 0 view .LVU242
 827 0026 A7EB0B04 		sub	r4, r7, fp
 828 002a A4B2     		uxth	r4, r4
 829              	.LVL100:
 255:flight/libraries/fifo_buffer.c ****         if (block_len > num_bytes) {
 830              		.loc 1 255 9 is_stmt 1 view .LVU243
 831              		.loc 1 255 12 is_stmt 0 view .LVU244
 832 002c A542     		cmp	r5, r4
 833 002e 00D2     		bcs	.L59
 256:flight/libraries/fifo_buffer.c ****             block_len = num_bytes;
 834              		.loc 1 256 23 view .LVU245
ARM GAS  C:\Users\geoma\AppData\Local\Temp\cc6X62Dw.s 			page 20


 835 0030 2C46     		mov	r4, r5
 836              	.LVL101:
 837              	.L59:
 257:flight/libraries/fifo_buffer.c ****         }
 258:flight/libraries/fifo_buffer.c ****         if (block_len == 1) {
 838              		.loc 1 258 9 is_stmt 1 view .LVU246
 839              		.loc 1 258 12 is_stmt 0 view .LVU247
 840 0032 012C     		cmp	r4, #1
 841 0034 0FD1     		bne	.L60
 259:flight/libraries/fifo_buffer.c ****             *((uint8_t *)(buff + wr)) = *((uint8_t *)(p + i));
 842              		.loc 1 259 13 is_stmt 1 view .LVU248
 843              		.loc 1 259 41 is_stmt 0 view .LVU249
 844 0036 18F80630 		ldrb	r3, [r8, r6]	@ zero_extendqisi2
 845              		.loc 1 259 39 view .LVU250
 846 003a 0AF80B30 		strb	r3, [r10, fp]
 847              	.L61:
 260:flight/libraries/fifo_buffer.c ****         } else {
 261:flight/libraries/fifo_buffer.c ****             memcpy(buff + wr, p + i, block_len);
 262:flight/libraries/fifo_buffer.c ****         }
 263:flight/libraries/fifo_buffer.c ****         i  += block_len;
 848              		.loc 1 263 9 is_stmt 1 view .LVU251
 849              		.loc 1 263 12 is_stmt 0 view .LVU252
 850 003e 2644     		add	r6, r6, r4
 851              	.LVL102:
 852              		.loc 1 263 12 view .LVU253
 853 0040 B6B2     		uxth	r6, r6
 854              	.LVL103:
 264:flight/libraries/fifo_buffer.c ****         num_bytes -= block_len;
 855              		.loc 1 264 9 is_stmt 1 view .LVU254
 856              		.loc 1 264 19 is_stmt 0 view .LVU255
 857 0042 2D1B     		subs	r5, r5, r4
 858              	.LVL104:
 859              		.loc 1 264 19 view .LVU256
 860 0044 ADB2     		uxth	r5, r5
 861              	.LVL105:
 265:flight/libraries/fifo_buffer.c ****         wr += block_len;
 862              		.loc 1 265 9 is_stmt 1 view .LVU257
 863              		.loc 1 265 12 is_stmt 0 view .LVU258
 864 0046 5C44     		add	r4, r4, fp
 865              	.LVL106:
 866              		.loc 1 265 12 view .LVU259
 867 0048 1FFA84FB 		uxth	fp, r4
 868              	.LVL107:
 266:flight/libraries/fifo_buffer.c ****         if (wr >= buf_size) {
 869              		.loc 1 266 9 is_stmt 1 view .LVU260
 870              		.loc 1 266 12 is_stmt 0 view .LVU261
 871 004c 5F45     		cmp	r7, fp
 872 004e E9D8     		bhi	.L58
 267:flight/libraries/fifo_buffer.c ****             wr = 0;
 873              		.loc 1 267 16 view .LVU262
 874 0050 4FF0000B 		mov	fp, #0
 875              	.LVL108:
 876              		.loc 1 267 16 view .LVU263
 877 0054 E6E7     		b	.L58
 878              	.LVL109:
 879              	.L60:
 261:flight/libraries/fifo_buffer.c ****         }
ARM GAS  C:\Users\geoma\AppData\Local\Temp\cc6X62Dw.s 			page 21


 880              		.loc 1 261 13 is_stmt 1 view .LVU264
 881 0056 2246     		mov	r2, r4
 882 0058 08EB0601 		add	r1, r8, r6
 883 005c 0AEB0B00 		add	r0, r10, fp
 884 0060 FFF7FEFF 		bl	memcpy
 885              	.LVL110:
 886 0064 EBE7     		b	.L61
 887              	.LVL111:
 888              	.L68:
 261:flight/libraries/fifo_buffer.c ****         }
 889              		.loc 1 261 13 is_stmt 0 view .LVU265
 890              	.LBE4:
 268:flight/libraries/fifo_buffer.c ****         }
 269:flight/libraries/fifo_buffer.c ****     }
 270:flight/libraries/fifo_buffer.c **** 
 271:flight/libraries/fifo_buffer.c ****     buf->wr = wr;
 891              		.loc 1 271 5 is_stmt 1 view .LVU266
 892              		.loc 1 271 13 is_stmt 0 view .LVU267
 893 0066 A9F806B0 		strh	fp, [r9, #6]	@ movhi
 272:flight/libraries/fifo_buffer.c **** 
 273:flight/libraries/fifo_buffer.c ****     return i; // return number of bytes copied
 894              		.loc 1 273 5 is_stmt 1 view .LVU268
 895              	.LVL112:
 896              	.L57:
 274:flight/libraries/fifo_buffer.c **** }
 897              		.loc 1 274 1 is_stmt 0 view .LVU269
 898 006a 3046     		mov	r0, r6
 899 006c BDE8F88F 		pop	{r3, r4, r5, r6, r7, r8, r9, r10, fp, pc}
 900              	.LVL113:
 901              	.L64:
 248:flight/libraries/fifo_buffer.c ****     }
 902              		.loc 1 248 16 view .LVU270
 903 0070 2E46     		mov	r6, r5
 904 0072 FAE7     		b	.L57
 905              		.cfi_endproc
 906              	.LFE10:
 908              		.section	.text.fifoBuf_init,"ax",%progbits
 909              		.align	1
 910              		.global	fifoBuf_init
 911              		.syntax unified
 912              		.thumb
 913              		.thumb_func
 915              	fifoBuf_init:
 916              	.LVL114:
 917              	.LFB11:
 275:flight/libraries/fifo_buffer.c **** 
 276:flight/libraries/fifo_buffer.c **** void fifoBuf_init(t_fifo_buffer *buf, const void *buffer, const uint16_t buffer_size)
 277:flight/libraries/fifo_buffer.c **** {
 918              		.loc 1 277 1 is_stmt 1 view -0
 919              		.cfi_startproc
 920              		@ args = 0, pretend = 0, frame = 0
 921              		@ frame_needed = 0, uses_anonymous_args = 0
 922              		@ link register save eliminated.
 278:flight/libraries/fifo_buffer.c ****     buf->buf_ptr  = (uint8_t *)buffer;
 923              		.loc 1 278 5 view .LVU272
 924              		.loc 1 278 19 is_stmt 0 view .LVU273
 925 0000 0160     		str	r1, [r0]
ARM GAS  C:\Users\geoma\AppData\Local\Temp\cc6X62Dw.s 			page 22


 279:flight/libraries/fifo_buffer.c ****     buf->rd = 0;
 926              		.loc 1 279 5 is_stmt 1 view .LVU274
 927              		.loc 1 279 13 is_stmt 0 view .LVU275
 928 0002 0023     		movs	r3, #0
 929 0004 8380     		strh	r3, [r0, #4]	@ movhi
 280:flight/libraries/fifo_buffer.c ****     buf->wr = 0;
 930              		.loc 1 280 5 is_stmt 1 view .LVU276
 931              		.loc 1 280 13 is_stmt 0 view .LVU277
 932 0006 C380     		strh	r3, [r0, #6]	@ movhi
 281:flight/libraries/fifo_buffer.c ****     buf->buf_size = buffer_size;
 933              		.loc 1 281 5 is_stmt 1 view .LVU278
 934              		.loc 1 281 19 is_stmt 0 view .LVU279
 935 0008 0281     		strh	r2, [r0, #8]	@ movhi
 282:flight/libraries/fifo_buffer.c **** }
 936              		.loc 1 282 1 view .LVU280
 937 000a 7047     		bx	lr
 938              		.cfi_endproc
 939              	.LFE11:
 941              		.text
 942              	.Letext0:
 943              		.file 2 "c:\\program files (x86)\\gnu arm embedded toolchain\\10.3-2021.10\\arm-none-eabi\\include
 944              		.file 3 "c:\\program files (x86)\\gnu arm embedded toolchain\\10.3-2021.10\\arm-none-eabi\\include
 945              		.file 4 "./flight/libraries/inc/fifo_buffer.h"
 946              		.file 5 "<built-in>"
ARM GAS  C:\Users\geoma\AppData\Local\Temp\cc6X62Dw.s 			page 23

