ARM GAS  C:\Users\geoma\AppData\Local\Temp\ccwSeIx6.s 			page 1


   1              		.cpu cortex-m4
   2              		.arch armv7e-m
   3              		.fpu fpv4-sp-d16
   4              		.eabi_attribute 27, 1
   5              		.eabi_attribute 28, 1
   6              		.eabi_attribute 20, 1
   7              		.eabi_attribute 21, 1
   8              		.eabi_attribute 23, 3
   9              		.eabi_attribute 24, 1
  10              		.eabi_attribute 25, 1
  11              		.eabi_attribute 26, 1
  12              		.eabi_attribute 30, 1
  13              		.eabi_attribute 34, 1
  14              		.eabi_attribute 18, 4
  15              		.file	"misc.c"
  16              		.text
  17              	.Ltext0:
  18              		.cfi_sections	.debug_frame
  19              		.section	.text.NVIC_PriorityGroupConfig,"ax",%progbits
  20              		.align	1
  21              		.global	NVIC_PriorityGroupConfig
  22              		.syntax unified
  23              		.thumb
  24              		.thumb_func
  26              	NVIC_PriorityGroupConfig:
  27              	.LVL0:
  28              	.LFB1372:
  29              		.file 1 "flight/uvos/stm32f4xx/misc.c"
   1:flight/uvos/stm32f4xx/misc.c **** /**
   2:flight/uvos/stm32f4xx/misc.c ****   ******************************************************************************
   3:flight/uvos/stm32f4xx/misc.c ****   * @file    misc.c
   4:flight/uvos/stm32f4xx/misc.c ****   * @author  MCD Application Team
   5:flight/uvos/stm32f4xx/misc.c ****   * @version V1.8.1
   6:flight/uvos/stm32f4xx/misc.c ****   * @date    27-January-2022
   7:flight/uvos/stm32f4xx/misc.c ****   * @brief   This file provides all the miscellaneous firmware functions (add-on
   8:flight/uvos/stm32f4xx/misc.c ****   *          to CMSIS functions).
   9:flight/uvos/stm32f4xx/misc.c ****   *          
  10:flight/uvos/stm32f4xx/misc.c ****   *  @verbatim   
  11:flight/uvos/stm32f4xx/misc.c ****   *                               
  12:flight/uvos/stm32f4xx/misc.c ****   *          ===================================================================      
  13:flight/uvos/stm32f4xx/misc.c ****   *                        How to configure Interrupts using driver 
  14:flight/uvos/stm32f4xx/misc.c ****   *          ===================================================================      
  15:flight/uvos/stm32f4xx/misc.c ****   * 
  16:flight/uvos/stm32f4xx/misc.c ****   *            This section provide functions allowing to configure the NVIC interrupts (IRQ).
  17:flight/uvos/stm32f4xx/misc.c ****   *            The Cortex-M4 exceptions are managed by CMSIS functions.
  18:flight/uvos/stm32f4xx/misc.c ****   *
  19:flight/uvos/stm32f4xx/misc.c ****   *            1. Configure the NVIC Priority Grouping using NVIC_PriorityGroupConfig()
  20:flight/uvos/stm32f4xx/misc.c ****   *                function according to the following table.
  21:flight/uvos/stm32f4xx/misc.c ****  
  22:flight/uvos/stm32f4xx/misc.c ****   *  The table below gives the allowed values of the pre-emption priority and subpriority according
  23:flight/uvos/stm32f4xx/misc.c ****   *  to the Priority Grouping configuration performed by NVIC_PriorityGroupConfig function
  24:flight/uvos/stm32f4xx/misc.c ****   *    ============================================================================================
  25:flight/uvos/stm32f4xx/misc.c ****   *      NVIC_PriorityGroup   | NVIC_IRQChannelPreemptionPriority | NVIC_IRQChannelSubPriority  |  
  26:flight/uvos/stm32f4xx/misc.c ****   *    ============================================================================================
  27:flight/uvos/stm32f4xx/misc.c ****   *     NVIC_PriorityGroup_0  |                0                  |            0-15             | 0
  28:flight/uvos/stm32f4xx/misc.c ****   *                           |                                   |                             | 4
  29:flight/uvos/stm32f4xx/misc.c ****   *    --------------------------------------------------------------------------------------------
ARM GAS  C:\Users\geoma\AppData\Local\Temp\ccwSeIx6.s 			page 2


  30:flight/uvos/stm32f4xx/misc.c ****   *     NVIC_PriorityGroup_1  |                0-1                |            0-7              | 1
  31:flight/uvos/stm32f4xx/misc.c ****   *                           |                                   |                             | 3
  32:flight/uvos/stm32f4xx/misc.c ****   *    --------------------------------------------------------------------------------------------
  33:flight/uvos/stm32f4xx/misc.c ****   *     NVIC_PriorityGroup_2  |                0-3                |            0-3              | 2
  34:flight/uvos/stm32f4xx/misc.c ****   *                           |                                   |                             | 2
  35:flight/uvos/stm32f4xx/misc.c ****   *    --------------------------------------------------------------------------------------------
  36:flight/uvos/stm32f4xx/misc.c ****   *     NVIC_PriorityGroup_3  |                0-7                |            0-1              | 3
  37:flight/uvos/stm32f4xx/misc.c ****   *                           |                                   |                             | 1
  38:flight/uvos/stm32f4xx/misc.c ****   *    --------------------------------------------------------------------------------------------
  39:flight/uvos/stm32f4xx/misc.c ****   *     NVIC_PriorityGroup_4  |                0-15               |            0                | 4
  40:flight/uvos/stm32f4xx/misc.c ****   *                           |                                   |                             | 0
  41:flight/uvos/stm32f4xx/misc.c ****   *    ============================================================================================
  42:flight/uvos/stm32f4xx/misc.c ****   *
  43:flight/uvos/stm32f4xx/misc.c ****   *            2. Enable and Configure the priority of the selected IRQ Channels using NVIC_Init() 
  44:flight/uvos/stm32f4xx/misc.c ****   *
  45:flight/uvos/stm32f4xx/misc.c ****   * @note  When the NVIC_PriorityGroup_0 is selected, IRQ pre-emption is no more possible. 
  46:flight/uvos/stm32f4xx/misc.c ****   *        The pending IRQ priority will be managed only by the subpriority.
  47:flight/uvos/stm32f4xx/misc.c ****   *
  48:flight/uvos/stm32f4xx/misc.c ****   * @note  IRQ priority order (sorted by highest to lowest priority):
  49:flight/uvos/stm32f4xx/misc.c ****   *         - Lowest pre-emption priority
  50:flight/uvos/stm32f4xx/misc.c ****   *         - Lowest subpriority
  51:flight/uvos/stm32f4xx/misc.c ****   *         - Lowest hardware priority (IRQ number)
  52:flight/uvos/stm32f4xx/misc.c ****   *
  53:flight/uvos/stm32f4xx/misc.c ****   *  @endverbatim
  54:flight/uvos/stm32f4xx/misc.c ****   *
  55:flight/uvos/stm32f4xx/misc.c ****   ******************************************************************************
  56:flight/uvos/stm32f4xx/misc.c ****   * @attention
  57:flight/uvos/stm32f4xx/misc.c ****   *
  58:flight/uvos/stm32f4xx/misc.c ****   * Copyright (c) 2016 STMicroelectronics.
  59:flight/uvos/stm32f4xx/misc.c ****   * All rights reserved.
  60:flight/uvos/stm32f4xx/misc.c ****   *
  61:flight/uvos/stm32f4xx/misc.c ****   * This software is licensed under terms that can be found in the LICENSE file
  62:flight/uvos/stm32f4xx/misc.c ****   * in the root directory of this software component.
  63:flight/uvos/stm32f4xx/misc.c ****   * If no LICENSE file comes with this software, it is provided AS-IS.
  64:flight/uvos/stm32f4xx/misc.c ****   *
  65:flight/uvos/stm32f4xx/misc.c ****   ******************************************************************************
  66:flight/uvos/stm32f4xx/misc.c ****   */
  67:flight/uvos/stm32f4xx/misc.c **** 
  68:flight/uvos/stm32f4xx/misc.c **** /* Includes ------------------------------------------------------------------*/
  69:flight/uvos/stm32f4xx/misc.c **** #include <uvos.h>
  70:flight/uvos/stm32f4xx/misc.c **** #include "misc.h"
  71:flight/uvos/stm32f4xx/misc.c **** 
  72:flight/uvos/stm32f4xx/misc.c **** /** @addtogroup STM32F4xx_StdPeriph_Driver
  73:flight/uvos/stm32f4xx/misc.c ****   * @{
  74:flight/uvos/stm32f4xx/misc.c ****   */
  75:flight/uvos/stm32f4xx/misc.c **** 
  76:flight/uvos/stm32f4xx/misc.c **** /** @defgroup MISC 
  77:flight/uvos/stm32f4xx/misc.c ****   * @brief MISC driver modules
  78:flight/uvos/stm32f4xx/misc.c ****   * @{
  79:flight/uvos/stm32f4xx/misc.c ****   */
  80:flight/uvos/stm32f4xx/misc.c **** 
  81:flight/uvos/stm32f4xx/misc.c **** /* Private typedef -----------------------------------------------------------*/
  82:flight/uvos/stm32f4xx/misc.c **** /* Private define ------------------------------------------------------------*/
  83:flight/uvos/stm32f4xx/misc.c **** #define AIRCR_VECTKEY_MASK    ((uint32_t)0x05FA0000)
  84:flight/uvos/stm32f4xx/misc.c **** 
  85:flight/uvos/stm32f4xx/misc.c **** /* Private macro -------------------------------------------------------------*/
  86:flight/uvos/stm32f4xx/misc.c **** /* Private variables ---------------------------------------------------------*/
ARM GAS  C:\Users\geoma\AppData\Local\Temp\ccwSeIx6.s 			page 3


  87:flight/uvos/stm32f4xx/misc.c **** /* Private function prototypes -----------------------------------------------*/
  88:flight/uvos/stm32f4xx/misc.c **** /* Private functions ---------------------------------------------------------*/
  89:flight/uvos/stm32f4xx/misc.c **** 
  90:flight/uvos/stm32f4xx/misc.c **** /** @defgroup MISC_Private_Functions
  91:flight/uvos/stm32f4xx/misc.c ****   * @{
  92:flight/uvos/stm32f4xx/misc.c ****   */
  93:flight/uvos/stm32f4xx/misc.c **** 
  94:flight/uvos/stm32f4xx/misc.c **** /**
  95:flight/uvos/stm32f4xx/misc.c ****   * @brief  Configures the priority grouping: pre-emption priority and subpriority.
  96:flight/uvos/stm32f4xx/misc.c ****   * @param  NVIC_PriorityGroup: specifies the priority grouping bits length. 
  97:flight/uvos/stm32f4xx/misc.c ****   *   This parameter can be one of the following values:
  98:flight/uvos/stm32f4xx/misc.c ****   *     @arg NVIC_PriorityGroup_0: 0 bits for pre-emption priority
  99:flight/uvos/stm32f4xx/misc.c ****   *                                4 bits for subpriority
 100:flight/uvos/stm32f4xx/misc.c ****   *     @arg NVIC_PriorityGroup_1: 1 bits for pre-emption priority
 101:flight/uvos/stm32f4xx/misc.c ****   *                                3 bits for subpriority
 102:flight/uvos/stm32f4xx/misc.c ****   *     @arg NVIC_PriorityGroup_2: 2 bits for pre-emption priority
 103:flight/uvos/stm32f4xx/misc.c ****   *                                2 bits for subpriority
 104:flight/uvos/stm32f4xx/misc.c ****   *     @arg NVIC_PriorityGroup_3: 3 bits for pre-emption priority
 105:flight/uvos/stm32f4xx/misc.c ****   *                                1 bits for subpriority
 106:flight/uvos/stm32f4xx/misc.c ****   *     @arg NVIC_PriorityGroup_4: 4 bits for pre-emption priority
 107:flight/uvos/stm32f4xx/misc.c ****   *                                0 bits for subpriority
 108:flight/uvos/stm32f4xx/misc.c ****   * @note   When the NVIC_PriorityGroup_0 is selected, IRQ pre-emption is no more possible. 
 109:flight/uvos/stm32f4xx/misc.c ****   *         The pending IRQ priority will be managed only by the subpriority. 
 110:flight/uvos/stm32f4xx/misc.c ****   * @retval None
 111:flight/uvos/stm32f4xx/misc.c ****   */
 112:flight/uvos/stm32f4xx/misc.c **** void NVIC_PriorityGroupConfig(uint32_t NVIC_PriorityGroup)
 113:flight/uvos/stm32f4xx/misc.c **** {
  30              		.loc 1 113 1 view -0
  31              		.cfi_startproc
  32              		@ args = 0, pretend = 0, frame = 0
  33              		@ frame_needed = 0, uses_anonymous_args = 0
  34              		@ link register save eliminated.
 114:flight/uvos/stm32f4xx/misc.c ****   /* Check the parameters */
 115:flight/uvos/stm32f4xx/misc.c ****   assert_param(IS_NVIC_PRIORITY_GROUP(NVIC_PriorityGroup));
  35              		.loc 1 115 3 view .LVU1
 116:flight/uvos/stm32f4xx/misc.c ****   
 117:flight/uvos/stm32f4xx/misc.c ****   /* Set the PRIGROUP[10:8] bits according to NVIC_PriorityGroup value */
 118:flight/uvos/stm32f4xx/misc.c ****   SCB->AIRCR = AIRCR_VECTKEY_MASK | NVIC_PriorityGroup;
  36              		.loc 1 118 3 view .LVU2
  37              		.loc 1 118 35 is_stmt 0 view .LVU3
  38 0000 40F0BF60 		orr	r0, r0, #100139008
  39              	.LVL1:
  40              		.loc 1 118 35 view .LVU4
  41 0004 40F40030 		orr	r0, r0, #131072
  42              		.loc 1 118 14 view .LVU5
  43 0008 014B     		ldr	r3, .L2
  44 000a D860     		str	r0, [r3, #12]
 119:flight/uvos/stm32f4xx/misc.c **** }
  45              		.loc 1 119 1 view .LVU6
  46 000c 7047     		bx	lr
  47              	.L3:
  48 000e 00BF     		.align	2
  49              	.L2:
  50 0010 00ED00E0 		.word	-536810240
  51              		.cfi_endproc
  52              	.LFE1372:
  54              		.section	.text.NVIC_Init,"ax",%progbits
ARM GAS  C:\Users\geoma\AppData\Local\Temp\ccwSeIx6.s 			page 4


  55              		.align	1
  56              		.global	NVIC_Init
  57              		.syntax unified
  58              		.thumb
  59              		.thumb_func
  61              	NVIC_Init:
  62              	.LVL2:
  63              	.LFB1373:
 120:flight/uvos/stm32f4xx/misc.c **** 
 121:flight/uvos/stm32f4xx/misc.c **** /**
 122:flight/uvos/stm32f4xx/misc.c ****   * @brief  Initializes the NVIC peripheral according to the specified
 123:flight/uvos/stm32f4xx/misc.c ****   *         parameters in the NVIC_InitStruct.
 124:flight/uvos/stm32f4xx/misc.c ****   * @note   To configure interrupts priority correctly, the NVIC_PriorityGroupConfig()
 125:flight/uvos/stm32f4xx/misc.c ****   *         function should be called before. 
 126:flight/uvos/stm32f4xx/misc.c ****   * @param  NVIC_InitStruct: pointer to a NVIC_InitTypeDef structure that contains
 127:flight/uvos/stm32f4xx/misc.c ****   *         the configuration information for the specified NVIC peripheral.
 128:flight/uvos/stm32f4xx/misc.c ****   * @retval None
 129:flight/uvos/stm32f4xx/misc.c ****   */
 130:flight/uvos/stm32f4xx/misc.c **** void NVIC_Init(NVIC_InitTypeDef* NVIC_InitStruct)
 131:flight/uvos/stm32f4xx/misc.c **** {
  64              		.loc 1 131 1 is_stmt 1 view -0
  65              		.cfi_startproc
  66              		@ args = 0, pretend = 0, frame = 0
  67              		@ frame_needed = 0, uses_anonymous_args = 0
  68              		@ link register save eliminated.
 132:flight/uvos/stm32f4xx/misc.c ****   uint8_t tmppriority = 0x00, tmppre = 0x00, tmpsub = 0x0F;
  69              		.loc 1 132 3 view .LVU8
 133:flight/uvos/stm32f4xx/misc.c ****   
 134:flight/uvos/stm32f4xx/misc.c ****   /* Check the parameters */
 135:flight/uvos/stm32f4xx/misc.c ****   assert_param(IS_FUNCTIONAL_STATE(NVIC_InitStruct->NVIC_IRQChannelCmd));
  70              		.loc 1 135 3 view .LVU9
 136:flight/uvos/stm32f4xx/misc.c ****   assert_param(IS_NVIC_PREEMPTION_PRIORITY(NVIC_InitStruct->NVIC_IRQChannelPreemptionPriority));  
  71              		.loc 1 136 3 view .LVU10
 137:flight/uvos/stm32f4xx/misc.c ****   assert_param(IS_NVIC_SUB_PRIORITY(NVIC_InitStruct->NVIC_IRQChannelSubPriority));
  72              		.loc 1 137 3 view .LVU11
 138:flight/uvos/stm32f4xx/misc.c ****     
 139:flight/uvos/stm32f4xx/misc.c ****   if (NVIC_InitStruct->NVIC_IRQChannelCmd != DISABLE)
  73              		.loc 1 139 3 view .LVU12
  74              		.loc 1 139 22 is_stmt 0 view .LVU13
  75 0000 C378     		ldrb	r3, [r0, #3]	@ zero_extendqisi2
  76              		.loc 1 139 6 view .LVU14
  77 0002 FBB1     		cbz	r3, .L5
 140:flight/uvos/stm32f4xx/misc.c ****   {
 141:flight/uvos/stm32f4xx/misc.c ****     /* Compute the Corresponding IRQ Priority --------------------------------*/    
 142:flight/uvos/stm32f4xx/misc.c ****     tmppriority = (0x700 - ((SCB->AIRCR) & (uint32_t)0x700))>> 0x08;
  78              		.loc 1 142 5 is_stmt 1 view .LVU15
  79              		.loc 1 142 33 is_stmt 0 view .LVU16
  80 0004 154B     		ldr	r3, .L7
  81 0006 DB68     		ldr	r3, [r3, #12]
  82              		.loc 1 142 26 view .LVU17
  83 0008 DB43     		mvns	r3, r3
  84              		.loc 1 142 17 view .LVU18
  85 000a C3F30222 		ubfx	r2, r3, #8, #3
  86              	.LVL3:
 143:flight/uvos/stm32f4xx/misc.c ****     tmppre = (0x4 - tmppriority);
  87              		.loc 1 143 5 is_stmt 1 view .LVU19
  88              		.loc 1 143 12 is_stmt 0 view .LVU20
ARM GAS  C:\Users\geoma\AppData\Local\Temp\ccwSeIx6.s 			page 5


  89 000e C2F10401 		rsb	r1, r2, #4
  90 0012 C9B2     		uxtb	r1, r1
  91              	.LVL4:
 144:flight/uvos/stm32f4xx/misc.c ****     tmpsub = tmpsub >> tmppriority;
  92              		.loc 1 144 5 is_stmt 1 view .LVU21
  93              		.loc 1 144 21 is_stmt 0 view .LVU22
  94 0014 0F23     		movs	r3, #15
  95 0016 1341     		asrs	r3, r3, r2
  96              	.LVL5:
 145:flight/uvos/stm32f4xx/misc.c **** 
 146:flight/uvos/stm32f4xx/misc.c ****     tmppriority = NVIC_InitStruct->NVIC_IRQChannelPreemptionPriority << tmppre;
  97              		.loc 1 146 5 is_stmt 1 view .LVU23
  98              		.loc 1 146 34 is_stmt 0 view .LVU24
  99 0018 4278     		ldrb	r2, [r0, #1]	@ zero_extendqisi2
 100              	.LVL6:
 101              		.loc 1 146 70 view .LVU25
 102 001a 8A40     		lsls	r2, r2, r1
 103              		.loc 1 146 17 view .LVU26
 104 001c D2B2     		uxtb	r2, r2
 105              	.LVL7:
 147:flight/uvos/stm32f4xx/misc.c ****     tmppriority |=  (uint8_t)(NVIC_InitStruct->NVIC_IRQChannelSubPriority & tmpsub);
 106              		.loc 1 147 5 is_stmt 1 view .LVU27
 107              		.loc 1 147 46 is_stmt 0 view .LVU28
 108 001e 8178     		ldrb	r1, [r0, #2]	@ zero_extendqisi2
 109              	.LVL8:
 110              		.loc 1 147 21 view .LVU29
 111 0020 0B40     		ands	r3, r3, r1
 112              	.LVL9:
 113              		.loc 1 147 17 view .LVU30
 114 0022 1343     		orrs	r3, r3, r2
 115              	.LVL10:
 148:flight/uvos/stm32f4xx/misc.c ****         
 149:flight/uvos/stm32f4xx/misc.c ****     tmppriority = tmppriority << 0x04;
 116              		.loc 1 149 5 is_stmt 1 view .LVU31
 117              		.loc 1 149 17 is_stmt 0 view .LVU32
 118 0024 1B01     		lsls	r3, r3, #4
 119              	.LVL11:
 120              		.loc 1 149 17 view .LVU33
 121 0026 DBB2     		uxtb	r3, r3
 122              	.LVL12:
 150:flight/uvos/stm32f4xx/misc.c ****         
 151:flight/uvos/stm32f4xx/misc.c ****     NVIC->IP[NVIC_InitStruct->NVIC_IRQChannel] = tmppriority;
 123              		.loc 1 151 5 is_stmt 1 view .LVU34
 124              		.loc 1 151 29 is_stmt 0 view .LVU35
 125 0028 0278     		ldrb	r2, [r0]	@ zero_extendqisi2
 126              		.loc 1 151 48 view .LVU36
 127 002a 0D49     		ldr	r1, .L7+4
 128 002c 0A44     		add	r2, r2, r1
 129 002e 82F80033 		strb	r3, [r2, #768]
 152:flight/uvos/stm32f4xx/misc.c ****     
 153:flight/uvos/stm32f4xx/misc.c ****     /* Enable the Selected IRQ Channels --------------------------------------*/
 154:flight/uvos/stm32f4xx/misc.c ****     NVIC->ISER[NVIC_InitStruct->NVIC_IRQChannel >> 0x05] =
 130              		.loc 1 154 5 is_stmt 1 view .LVU37
 155:flight/uvos/stm32f4xx/misc.c ****       (uint32_t)0x01 << (NVIC_InitStruct->NVIC_IRQChannel & (uint8_t)0x1F);
 131              		.loc 1 155 41 is_stmt 0 view .LVU38
 132 0032 0378     		ldrb	r3, [r0]	@ zero_extendqisi2
 133              	.LVL13:
ARM GAS  C:\Users\geoma\AppData\Local\Temp\ccwSeIx6.s 			page 6


 134              		.loc 1 155 59 view .LVU39
 135 0034 03F01F00 		and	r0, r3, #31
 136              	.LVL14:
 154:flight/uvos/stm32f4xx/misc.c ****       (uint32_t)0x01 << (NVIC_InitStruct->NVIC_IRQChannel & (uint8_t)0x1F);
 137              		.loc 1 154 49 view .LVU40
 138 0038 5B09     		lsrs	r3, r3, #5
 139              		.loc 1 155 22 view .LVU41
 140 003a 0122     		movs	r2, #1
 141              	.LVL15:
 142              		.loc 1 155 22 view .LVU42
 143 003c 8240     		lsls	r2, r2, r0
 154:flight/uvos/stm32f4xx/misc.c ****       (uint32_t)0x01 << (NVIC_InitStruct->NVIC_IRQChannel & (uint8_t)0x1F);
 144              		.loc 1 154 58 view .LVU43
 145 003e 41F82320 		str	r2, [r1, r3, lsl #2]
 154:flight/uvos/stm32f4xx/misc.c ****       (uint32_t)0x01 << (NVIC_InitStruct->NVIC_IRQChannel & (uint8_t)0x1F);
 146              		.loc 1 154 58 view .LVU44
 147 0042 7047     		bx	lr
 148              	.LVL16:
 149              	.L5:
 156:flight/uvos/stm32f4xx/misc.c ****   }
 157:flight/uvos/stm32f4xx/misc.c ****   else
 158:flight/uvos/stm32f4xx/misc.c ****   {
 159:flight/uvos/stm32f4xx/misc.c ****     /* Disable the Selected IRQ Channels -------------------------------------*/
 160:flight/uvos/stm32f4xx/misc.c ****     NVIC->ICER[NVIC_InitStruct->NVIC_IRQChannel >> 0x05] =
 150              		.loc 1 160 5 is_stmt 1 view .LVU45
 161:flight/uvos/stm32f4xx/misc.c ****       (uint32_t)0x01 << (NVIC_InitStruct->NVIC_IRQChannel & (uint8_t)0x1F);
 151              		.loc 1 161 41 is_stmt 0 view .LVU46
 152 0044 0378     		ldrb	r3, [r0]	@ zero_extendqisi2
 153              		.loc 1 161 59 view .LVU47
 154 0046 03F01F01 		and	r1, r3, #31
 160:flight/uvos/stm32f4xx/misc.c ****       (uint32_t)0x01 << (NVIC_InitStruct->NVIC_IRQChannel & (uint8_t)0x1F);
 155              		.loc 1 160 49 view .LVU48
 156 004a 5B09     		lsrs	r3, r3, #5
 157              		.loc 1 161 22 view .LVU49
 158 004c 0122     		movs	r2, #1
 159 004e 8A40     		lsls	r2, r2, r1
 160:flight/uvos/stm32f4xx/misc.c ****       (uint32_t)0x01 << (NVIC_InitStruct->NVIC_IRQChannel & (uint8_t)0x1F);
 160              		.loc 1 160 58 view .LVU50
 161 0050 2033     		adds	r3, r3, #32
 162 0052 0349     		ldr	r1, .L7+4
 163 0054 41F82320 		str	r2, [r1, r3, lsl #2]
 162:flight/uvos/stm32f4xx/misc.c ****   }
 163:flight/uvos/stm32f4xx/misc.c **** }
 164              		.loc 1 163 1 view .LVU51
 165 0058 7047     		bx	lr
 166              	.L8:
 167 005a 00BF     		.align	2
 168              	.L7:
 169 005c 00ED00E0 		.word	-536810240
 170 0060 00E100E0 		.word	-536813312
 171              		.cfi_endproc
 172              	.LFE1373:
 174              		.section	.text.NVIC_SetVectorTable,"ax",%progbits
 175              		.align	1
 176              		.global	NVIC_SetVectorTable
 177              		.syntax unified
 178              		.thumb
ARM GAS  C:\Users\geoma\AppData\Local\Temp\ccwSeIx6.s 			page 7


 179              		.thumb_func
 181              	NVIC_SetVectorTable:
 182              	.LVL17:
 183              	.LFB1374:
 164:flight/uvos/stm32f4xx/misc.c **** 
 165:flight/uvos/stm32f4xx/misc.c **** /**
 166:flight/uvos/stm32f4xx/misc.c ****   * @brief  Sets the vector table location and Offset.
 167:flight/uvos/stm32f4xx/misc.c ****   * @param  NVIC_VectTab: specifies if the vector table is in RAM or FLASH memory.
 168:flight/uvos/stm32f4xx/misc.c ****   *   This parameter can be one of the following values:
 169:flight/uvos/stm32f4xx/misc.c ****   *     @arg NVIC_VectTab_RAM: Vector Table in internal SRAM.
 170:flight/uvos/stm32f4xx/misc.c ****   *     @arg NVIC_VectTab_FLASH: Vector Table in internal FLASH.
 171:flight/uvos/stm32f4xx/misc.c ****   * @param  Offset: Vector Table base offset field. This value must be a multiple of 0x200.
 172:flight/uvos/stm32f4xx/misc.c ****   * @retval None
 173:flight/uvos/stm32f4xx/misc.c ****   */
 174:flight/uvos/stm32f4xx/misc.c **** void NVIC_SetVectorTable(uint32_t NVIC_VectTab, uint32_t Offset)
 175:flight/uvos/stm32f4xx/misc.c **** { 
 184              		.loc 1 175 1 is_stmt 1 view -0
 185              		.cfi_startproc
 186              		@ args = 0, pretend = 0, frame = 0
 187              		@ frame_needed = 0, uses_anonymous_args = 0
 188              		@ link register save eliminated.
 176:flight/uvos/stm32f4xx/misc.c ****   /* Check the parameters */
 177:flight/uvos/stm32f4xx/misc.c ****   assert_param(IS_NVIC_VECTTAB(NVIC_VectTab));
 189              		.loc 1 177 3 view .LVU53
 178:flight/uvos/stm32f4xx/misc.c ****   assert_param(IS_NVIC_OFFSET(Offset));  
 190              		.loc 1 178 3 view .LVU54
 179:flight/uvos/stm32f4xx/misc.c ****    
 180:flight/uvos/stm32f4xx/misc.c ****   SCB->VTOR = NVIC_VectTab | (Offset & (uint32_t)0x1FFFFF80);
 191              		.loc 1 180 3 view .LVU55
 192              		.loc 1 180 38 is_stmt 0 view .LVU56
 193 0000 21F06041 		bic	r1, r1, #-536870912
 194              	.LVL18:
 195              		.loc 1 180 38 view .LVU57
 196 0004 21F07F01 		bic	r1, r1, #127
 197              		.loc 1 180 28 view .LVU58
 198 0008 0143     		orrs	r1, r1, r0
 199              		.loc 1 180 13 view .LVU59
 200 000a 014B     		ldr	r3, .L10
 201 000c 9960     		str	r1, [r3, #8]
 181:flight/uvos/stm32f4xx/misc.c **** }
 202              		.loc 1 181 1 view .LVU60
 203 000e 7047     		bx	lr
 204              	.L11:
 205              		.align	2
 206              	.L10:
 207 0010 00ED00E0 		.word	-536810240
 208              		.cfi_endproc
 209              	.LFE1374:
 211              		.section	.text.NVIC_SystemLPConfig,"ax",%progbits
 212              		.align	1
 213              		.global	NVIC_SystemLPConfig
 214              		.syntax unified
 215              		.thumb
 216              		.thumb_func
 218              	NVIC_SystemLPConfig:
 219              	.LVL19:
 220              	.LFB1375:
ARM GAS  C:\Users\geoma\AppData\Local\Temp\ccwSeIx6.s 			page 8


 182:flight/uvos/stm32f4xx/misc.c **** 
 183:flight/uvos/stm32f4xx/misc.c **** /**
 184:flight/uvos/stm32f4xx/misc.c ****   * @brief  Selects the condition for the system to enter low power mode.
 185:flight/uvos/stm32f4xx/misc.c ****   * @param  LowPowerMode: Specifies the new mode for the system to enter low power mode.
 186:flight/uvos/stm32f4xx/misc.c ****   *   This parameter can be one of the following values:
 187:flight/uvos/stm32f4xx/misc.c ****   *     @arg NVIC_LP_SEVONPEND: Low Power SEV on Pend.
 188:flight/uvos/stm32f4xx/misc.c ****   *     @arg NVIC_LP_SLEEPDEEP: Low Power DEEPSLEEP request.
 189:flight/uvos/stm32f4xx/misc.c ****   *     @arg NVIC_LP_SLEEPONEXIT: Low Power Sleep on Exit.
 190:flight/uvos/stm32f4xx/misc.c ****   * @param  NewState: new state of LP condition. This parameter can be: ENABLE or DISABLE.
 191:flight/uvos/stm32f4xx/misc.c ****   * @retval None
 192:flight/uvos/stm32f4xx/misc.c ****   */
 193:flight/uvos/stm32f4xx/misc.c **** void NVIC_SystemLPConfig(uint8_t LowPowerMode, FunctionalState NewState)
 194:flight/uvos/stm32f4xx/misc.c **** {
 221              		.loc 1 194 1 is_stmt 1 view -0
 222              		.cfi_startproc
 223              		@ args = 0, pretend = 0, frame = 0
 224              		@ frame_needed = 0, uses_anonymous_args = 0
 225              		@ link register save eliminated.
 195:flight/uvos/stm32f4xx/misc.c ****   /* Check the parameters */
 196:flight/uvos/stm32f4xx/misc.c ****   assert_param(IS_NVIC_LP(LowPowerMode));
 226              		.loc 1 196 3 view .LVU62
 197:flight/uvos/stm32f4xx/misc.c ****   assert_param(IS_FUNCTIONAL_STATE(NewState));  
 227              		.loc 1 197 3 view .LVU63
 198:flight/uvos/stm32f4xx/misc.c ****   
 199:flight/uvos/stm32f4xx/misc.c ****   if (NewState != DISABLE)
 228              		.loc 1 199 3 view .LVU64
 229              		.loc 1 199 6 is_stmt 0 view .LVU65
 230 0000 21B1     		cbz	r1, .L13
 200:flight/uvos/stm32f4xx/misc.c ****   {
 201:flight/uvos/stm32f4xx/misc.c ****     SCB->SCR |= LowPowerMode;
 231              		.loc 1 201 5 is_stmt 1 view .LVU66
 232              		.loc 1 201 14 is_stmt 0 view .LVU67
 233 0002 054B     		ldr	r3, .L15
 234 0004 1A69     		ldr	r2, [r3, #16]
 235 0006 1043     		orrs	r0, r0, r2
 236              	.LVL20:
 237              		.loc 1 201 14 view .LVU68
 238 0008 1861     		str	r0, [r3, #16]
 239 000a 7047     		bx	lr
 240              	.LVL21:
 241              	.L13:
 202:flight/uvos/stm32f4xx/misc.c ****   }
 203:flight/uvos/stm32f4xx/misc.c ****   else
 204:flight/uvos/stm32f4xx/misc.c ****   {
 205:flight/uvos/stm32f4xx/misc.c ****     SCB->SCR &= (uint32_t)(~(uint32_t)LowPowerMode);
 242              		.loc 1 205 5 is_stmt 1 view .LVU69
 243              		.loc 1 205 14 is_stmt 0 view .LVU70
 244 000c 024A     		ldr	r2, .L15
 245 000e 1369     		ldr	r3, [r2, #16]
 246 0010 23EA0000 		bic	r0, r3, r0
 247              	.LVL22:
 248              		.loc 1 205 14 view .LVU71
 249 0014 1061     		str	r0, [r2, #16]
 206:flight/uvos/stm32f4xx/misc.c ****   }
 207:flight/uvos/stm32f4xx/misc.c **** }
 250              		.loc 1 207 1 view .LVU72
 251 0016 7047     		bx	lr
ARM GAS  C:\Users\geoma\AppData\Local\Temp\ccwSeIx6.s 			page 9


 252              	.L16:
 253              		.align	2
 254              	.L15:
 255 0018 00ED00E0 		.word	-536810240
 256              		.cfi_endproc
 257              	.LFE1375:
 259              		.section	.text.SysTick_CLKSourceConfig,"ax",%progbits
 260              		.align	1
 261              		.global	SysTick_CLKSourceConfig
 262              		.syntax unified
 263              		.thumb
 264              		.thumb_func
 266              	SysTick_CLKSourceConfig:
 267              	.LVL23:
 268              	.LFB1376:
 208:flight/uvos/stm32f4xx/misc.c **** 
 209:flight/uvos/stm32f4xx/misc.c **** /**
 210:flight/uvos/stm32f4xx/misc.c ****   * @brief  Configures the SysTick clock source.
 211:flight/uvos/stm32f4xx/misc.c ****   * @param  SysTick_CLKSource: specifies the SysTick clock source.
 212:flight/uvos/stm32f4xx/misc.c ****   *   This parameter can be one of the following values:
 213:flight/uvos/stm32f4xx/misc.c ****   *     @arg SysTick_CLKSource_HCLK_Div8: AHB clock divided by 8 selected as SysTick clock source.
 214:flight/uvos/stm32f4xx/misc.c ****   *     @arg SysTick_CLKSource_HCLK: AHB clock selected as SysTick clock source.
 215:flight/uvos/stm32f4xx/misc.c ****   * @retval None
 216:flight/uvos/stm32f4xx/misc.c ****   */
 217:flight/uvos/stm32f4xx/misc.c **** void SysTick_CLKSourceConfig(uint32_t SysTick_CLKSource)
 218:flight/uvos/stm32f4xx/misc.c **** {
 269              		.loc 1 218 1 is_stmt 1 view -0
 270              		.cfi_startproc
 271              		@ args = 0, pretend = 0, frame = 0
 272              		@ frame_needed = 0, uses_anonymous_args = 0
 273              		@ link register save eliminated.
 219:flight/uvos/stm32f4xx/misc.c ****   /* Check the parameters */
 220:flight/uvos/stm32f4xx/misc.c ****   assert_param(IS_SYSTICK_CLK_SOURCE(SysTick_CLKSource));
 274              		.loc 1 220 3 view .LVU74
 221:flight/uvos/stm32f4xx/misc.c ****   if (SysTick_CLKSource == SysTick_CLKSource_HCLK)
 275              		.loc 1 221 3 view .LVU75
 276              		.loc 1 221 6 is_stmt 0 view .LVU76
 277 0000 0428     		cmp	r0, #4
 278 0002 06D0     		beq	.L20
 222:flight/uvos/stm32f4xx/misc.c ****   {
 223:flight/uvos/stm32f4xx/misc.c ****     SysTick->CTRL |= SysTick_CLKSource_HCLK;
 224:flight/uvos/stm32f4xx/misc.c ****   }
 225:flight/uvos/stm32f4xx/misc.c ****   else
 226:flight/uvos/stm32f4xx/misc.c ****   {
 227:flight/uvos/stm32f4xx/misc.c ****     SysTick->CTRL &= SysTick_CLKSource_HCLK_Div8;
 279              		.loc 1 227 5 is_stmt 1 view .LVU77
 280              		.loc 1 227 19 is_stmt 0 view .LVU78
 281 0004 4FF0E022 		mov	r2, #-536813568
 282 0008 1369     		ldr	r3, [r2, #16]
 283 000a 23F00403 		bic	r3, r3, #4
 284 000e 1361     		str	r3, [r2, #16]
 228:flight/uvos/stm32f4xx/misc.c ****   }
 229:flight/uvos/stm32f4xx/misc.c **** }
 285              		.loc 1 229 1 view .LVU79
 286 0010 7047     		bx	lr
 287              	.L20:
 223:flight/uvos/stm32f4xx/misc.c ****   }
ARM GAS  C:\Users\geoma\AppData\Local\Temp\ccwSeIx6.s 			page 10


 288              		.loc 1 223 5 is_stmt 1 view .LVU80
 223:flight/uvos/stm32f4xx/misc.c ****   }
 289              		.loc 1 223 19 is_stmt 0 view .LVU81
 290 0012 4FF0E022 		mov	r2, #-536813568
 291 0016 1369     		ldr	r3, [r2, #16]
 292 0018 43F00403 		orr	r3, r3, #4
 293 001c 1361     		str	r3, [r2, #16]
 294 001e 7047     		bx	lr
 295              		.cfi_endproc
 296              	.LFE1376:
 298              		.section	.text.DMA_ClearFlags,"ax",%progbits
 299              		.align	1
 300              		.global	DMA_ClearFlags
 301              		.syntax unified
 302              		.thumb
 303              		.thumb_func
 305              	DMA_ClearFlags:
 306              	.LVL24:
 307              	.LFB1377:
 230:flight/uvos/stm32f4xx/misc.c **** 
 231:flight/uvos/stm32f4xx/misc.c **** // DMA helper functions --------------------------------------->>>
 232:flight/uvos/stm32f4xx/misc.c **** 
 233:flight/uvos/stm32f4xx/misc.c **** #define HIGH_ISR_MASK           (uint32_t)0x20000000
 234:flight/uvos/stm32f4xx/misc.c **** #define RESERVED_MASK           (uint32_t)0x0F7D0F7D
 235:flight/uvos/stm32f4xx/misc.c **** 
 236:flight/uvos/stm32f4xx/misc.c **** /* Clears the DMAy Streamx's pending flags */
 237:flight/uvos/stm32f4xx/misc.c **** void DMA_ClearFlags( DMA_TypeDef * DMAx, uint32_t DMA_flags )
 238:flight/uvos/stm32f4xx/misc.c **** {
 308              		.loc 1 238 1 is_stmt 1 view -0
 309              		.cfi_startproc
 310              		@ args = 0, pretend = 0, frame = 0
 311              		@ frame_needed = 0, uses_anonymous_args = 0
 312              		@ link register save eliminated.
 239:flight/uvos/stm32f4xx/misc.c ****   /* Check if LIFCR or HIFCR register is targeted */
 240:flight/uvos/stm32f4xx/misc.c ****   if ( ( DMA_flags & HIGH_ISR_MASK ) != ( uint32_t )RESET ) {
 313              		.loc 1 240 3 view .LVU83
 314              		.loc 1 240 6 is_stmt 0 view .LVU84
 315 0000 11F0005F 		tst	r1, #536870912
 316 0004 05D0     		beq	.L22
 241:flight/uvos/stm32f4xx/misc.c ****     /* Set DMAx HIFCR register clear flag bits */
 242:flight/uvos/stm32f4xx/misc.c ****     DMAx->HIFCR = ( uint32_t )( DMA_flags & RESERVED_MASK );
 317              		.loc 1 242 5 is_stmt 1 view .LVU85
 318              		.loc 1 242 19 is_stmt 0 view .LVU86
 319 0006 21F0F021 		bic	r1, r1, #-268374016
 320              	.LVL25:
 321              		.loc 1 242 19 view .LVU87
 322 000a 21F08211 		bic	r1, r1, #8519810
 323              		.loc 1 242 17 view .LVU88
 324 000e C160     		str	r1, [r0, #12]
 325 0010 7047     		bx	lr
 326              	.LVL26:
 327              	.L22:
 243:flight/uvos/stm32f4xx/misc.c ****   } else {
 244:flight/uvos/stm32f4xx/misc.c ****     /* Set DMAx LIFCR register clear flag bits */
 245:flight/uvos/stm32f4xx/misc.c ****     DMAx->LIFCR = ( uint32_t )( DMA_flags & RESERVED_MASK );
 328              		.loc 1 245 5 is_stmt 1 view .LVU89
 329              		.loc 1 245 19 is_stmt 0 view .LVU90
ARM GAS  C:\Users\geoma\AppData\Local\Temp\ccwSeIx6.s 			page 11


 330 0012 21F0F021 		bic	r1, r1, #-268374016
 331              	.LVL27:
 332              		.loc 1 245 19 view .LVU91
 333 0016 21F08211 		bic	r1, r1, #8519810
 334              		.loc 1 245 17 view .LVU92
 335 001a 8160     		str	r1, [r0, #8]
 246:flight/uvos/stm32f4xx/misc.c ****   }
 247:flight/uvos/stm32f4xx/misc.c **** }
 336              		.loc 1 247 1 view .LVU93
 337 001c 7047     		bx	lr
 338              		.cfi_endproc
 339              	.LFE1377:
 341              		.text
 342              	.Letext0:
 343              		.file 2 "c:\\program files (x86)\\gnu arm embedded toolchain\\10.3-2021.10\\arm-none-eabi\\include
 344              		.file 3 "c:\\program files (x86)\\gnu arm embedded toolchain\\10.3-2021.10\\arm-none-eabi\\include
 345              		.file 4 "./flight/uvos/stm32f4xx/libraries/CMSIS/Include/core_cm4.h"
 346              		.file 5 "./flight/uvos/stm32f4xx/libraries/CMSIS/Device/ST/STM32F4xx/Include/stm32f411xe.h"
 347              		.file 6 "./flight/uvos/stm32f4xx/libraries/CMSIS/Device/ST/STM32F4xx/Include/stm32f4xx.h"
 348              		.file 7 "./flight/uvos/stm32f4xx/libraries/STM32F4xx_HAL_Driver/Inc/stm32f4xx_ll_dma.h"
 349              		.file 8 "./flight/uvos/stm32f4xx/libraries/STM32F4xx_HAL_Driver/Inc/stm32f4xx_ll_tim.h"
 350              		.file 9 "./flight/uvos/inc/misc.h"
ARM GAS  C:\Users\geoma\AppData\Local\Temp\ccwSeIx6.s 			page 12

