ARM GAS  C:\Users\geoma\AppData\Local\Temp\ccvQ1Tua.s 			page 1


   1              		.cpu cortex-m4
   2              		.arch armv7e-m
   3              		.fpu fpv4-sp-d16
   4              		.eabi_attribute 27, 1
   5              		.eabi_attribute 28, 1
   6              		.eabi_attribute 20, 1
   7              		.eabi_attribute 21, 1
   8              		.eabi_attribute 23, 3
   9              		.eabi_attribute 24, 1
  10              		.eabi_attribute 25, 1
  11              		.eabi_attribute 26, 1
  12              		.eabi_attribute 30, 1
  13              		.eabi_attribute 34, 1
  14              		.eabi_attribute 18, 4
  15              		.file	"syscalls.c"
  16              		.text
  17              	.Ltext0:
  18              		.cfi_sections	.debug_frame
  19              		.section	.text._sbrk,"ax",%progbits
  20              		.align	1
  21              		.weak	_sbrk
  22              		.syntax unified
  23              		.thumb
  24              		.thumb_func
  26              	_sbrk:
  27              	.LVL0:
  28              	.LFB1372:
  29              		.file 1 "flight/uvos/common/syscalls.c"
   1:flight/uvos/common/syscalls.c **** #include <uvos.h>
   2:flight/uvos/common/syscalls.c **** 
   3:flight/uvos/common/syscalls.c **** #if defined (  __GNUC__  ) /* GCC CS3 */
   4:flight/uvos/common/syscalls.c **** #include <sys/stat.h>
   5:flight/uvos/common/syscalls.c **** #endif
   6:flight/uvos/common/syscalls.c **** 
   7:flight/uvos/common/syscalls.c **** #include <errno.h>
   8:flight/uvos/common/syscalls.c **** // #undef errno
   9:flight/uvos/common/syscalls.c **** // extern int errno;
  10:flight/uvos/common/syscalls.c **** 
  11:flight/uvos/common/syscalls.c **** 
  12:flight/uvos/common/syscalls.c **** // Helper macro to mark unused parameters and prevent compiler warnings.
  13:flight/uvos/common/syscalls.c **** // Appends _UNUSED to the variable name to prevent accidentally using them.
  14:flight/uvos/common/syscalls.c **** #define _UNUSED_(x) x ## _UNUSED __attribute__((__unused__))
  15:flight/uvos/common/syscalls.c **** 
  16:flight/uvos/common/syscalls.c **** __attribute__( ( weak ) )
  17:flight/uvos/common/syscalls.c **** caddr_t _sbrk( int incr )
  18:flight/uvos/common/syscalls.c **** {
  30              		.loc 1 18 1 view -0
  31              		.cfi_startproc
  32              		@ args = 0, pretend = 0, frame = 0
  33              		@ frame_needed = 0, uses_anonymous_args = 0
  34              		.loc 1 18 1 is_stmt 0 view .LVU1
  35 0000 08B5     		push	{r3, lr}
  36              	.LCFI0:
  37              		.cfi_def_cfa_offset 8
  38              		.cfi_offset 3, -8
  39              		.cfi_offset 14, -4
  40 0002 0346     		mov	r3, r0
ARM GAS  C:\Users\geoma\AppData\Local\Temp\ccvQ1Tua.s 			page 2


  19:flight/uvos/common/syscalls.c **** 	extern char _estack; /* Defined in the linker script */
  41              		.loc 1 19 2 is_stmt 1 view .LVU2
  20:flight/uvos/common/syscalls.c **** 	extern char _Min_Stack_Size; /* Defined in the linker script */
  42              		.loc 1 20 2 view .LVU3
  21:flight/uvos/common/syscalls.c **** 	extern char _end; /* Defined by the linker */
  43              		.loc 1 21 2 view .LVU4
  22:flight/uvos/common/syscalls.c **** 	static char * heap_end = &_end ;
  44              		.loc 1 22 2 view .LVU5
  23:flight/uvos/common/syscalls.c **** 	char * prev_heap_end = heap_end;
  45              		.loc 1 23 2 view .LVU6
  46              		.loc 1 23 9 is_stmt 0 view .LVU7
  47 0004 0E4A     		ldr	r2, .L8
  48 0006 1068     		ldr	r0, [r2]
  49              	.LVL1:
  24:flight/uvos/common/syscalls.c **** 
  25:flight/uvos/common/syscalls.c **** 	if ( heap_end + incr > ( char * )__get_MSP() ) {
  50              		.loc 1 25 2 is_stmt 1 view .LVU8
  51              		.loc 1 25 16 is_stmt 0 view .LVU9
  52 0008 0344     		add	r3, r3, r0
  53              	.LVL2:
  54              	.LBB4:
  55              	.LBI4:
  56              		.file 2 "./flight/uvos/stm32f4xx/libraries/CMSIS/Include/cmsis_gcc.h"
   1:./flight/uvos/stm32f4xx/libraries/CMSIS/Include/cmsis_gcc.h **** /**************************************************************************//**
   2:./flight/uvos/stm32f4xx/libraries/CMSIS/Include/cmsis_gcc.h ****  * @file     cmsis_gcc.h
   3:./flight/uvos/stm32f4xx/libraries/CMSIS/Include/cmsis_gcc.h ****  * @brief    CMSIS compiler GCC header file
   4:./flight/uvos/stm32f4xx/libraries/CMSIS/Include/cmsis_gcc.h ****  * @version  V5.0.4
   5:./flight/uvos/stm32f4xx/libraries/CMSIS/Include/cmsis_gcc.h ****  * @date     09. April 2018
   6:./flight/uvos/stm32f4xx/libraries/CMSIS/Include/cmsis_gcc.h ****  ******************************************************************************/
   7:./flight/uvos/stm32f4xx/libraries/CMSIS/Include/cmsis_gcc.h **** /*
   8:./flight/uvos/stm32f4xx/libraries/CMSIS/Include/cmsis_gcc.h ****  * Copyright (c) 2009-2018 Arm Limited. All rights reserved.
   9:./flight/uvos/stm32f4xx/libraries/CMSIS/Include/cmsis_gcc.h ****  *
  10:./flight/uvos/stm32f4xx/libraries/CMSIS/Include/cmsis_gcc.h ****  * SPDX-License-Identifier: Apache-2.0
  11:./flight/uvos/stm32f4xx/libraries/CMSIS/Include/cmsis_gcc.h ****  *
  12:./flight/uvos/stm32f4xx/libraries/CMSIS/Include/cmsis_gcc.h ****  * Licensed under the Apache License, Version 2.0 (the License); you may
  13:./flight/uvos/stm32f4xx/libraries/CMSIS/Include/cmsis_gcc.h ****  * not use this file except in compliance with the License.
  14:./flight/uvos/stm32f4xx/libraries/CMSIS/Include/cmsis_gcc.h ****  * You may obtain a copy of the License at
  15:./flight/uvos/stm32f4xx/libraries/CMSIS/Include/cmsis_gcc.h ****  *
  16:./flight/uvos/stm32f4xx/libraries/CMSIS/Include/cmsis_gcc.h ****  * www.apache.org/licenses/LICENSE-2.0
  17:./flight/uvos/stm32f4xx/libraries/CMSIS/Include/cmsis_gcc.h ****  *
  18:./flight/uvos/stm32f4xx/libraries/CMSIS/Include/cmsis_gcc.h ****  * Unless required by applicable law or agreed to in writing, software
  19:./flight/uvos/stm32f4xx/libraries/CMSIS/Include/cmsis_gcc.h ****  * distributed under the License is distributed on an AS IS BASIS, WITHOUT
  20:./flight/uvos/stm32f4xx/libraries/CMSIS/Include/cmsis_gcc.h ****  * WARRANTIES OR CONDITIONS OF ANY KIND, either express or implied.
  21:./flight/uvos/stm32f4xx/libraries/CMSIS/Include/cmsis_gcc.h ****  * See the License for the specific language governing permissions and
  22:./flight/uvos/stm32f4xx/libraries/CMSIS/Include/cmsis_gcc.h ****  * limitations under the License.
  23:./flight/uvos/stm32f4xx/libraries/CMSIS/Include/cmsis_gcc.h ****  */
  24:./flight/uvos/stm32f4xx/libraries/CMSIS/Include/cmsis_gcc.h **** 
  25:./flight/uvos/stm32f4xx/libraries/CMSIS/Include/cmsis_gcc.h **** #ifndef __CMSIS_GCC_H
  26:./flight/uvos/stm32f4xx/libraries/CMSIS/Include/cmsis_gcc.h **** #define __CMSIS_GCC_H
  27:./flight/uvos/stm32f4xx/libraries/CMSIS/Include/cmsis_gcc.h **** 
  28:./flight/uvos/stm32f4xx/libraries/CMSIS/Include/cmsis_gcc.h **** /* ignore some GCC warnings */
  29:./flight/uvos/stm32f4xx/libraries/CMSIS/Include/cmsis_gcc.h **** #pragma GCC diagnostic push
  30:./flight/uvos/stm32f4xx/libraries/CMSIS/Include/cmsis_gcc.h **** #pragma GCC diagnostic ignored "-Wsign-conversion"
  31:./flight/uvos/stm32f4xx/libraries/CMSIS/Include/cmsis_gcc.h **** #pragma GCC diagnostic ignored "-Wconversion"
  32:./flight/uvos/stm32f4xx/libraries/CMSIS/Include/cmsis_gcc.h **** #pragma GCC diagnostic ignored "-Wunused-parameter"
  33:./flight/uvos/stm32f4xx/libraries/CMSIS/Include/cmsis_gcc.h **** 
  34:./flight/uvos/stm32f4xx/libraries/CMSIS/Include/cmsis_gcc.h **** /* Fallback for __has_builtin */
ARM GAS  C:\Users\geoma\AppData\Local\Temp\ccvQ1Tua.s 			page 3


  35:./flight/uvos/stm32f4xx/libraries/CMSIS/Include/cmsis_gcc.h **** #ifndef __has_builtin
  36:./flight/uvos/stm32f4xx/libraries/CMSIS/Include/cmsis_gcc.h ****   #define __has_builtin(x) (0)
  37:./flight/uvos/stm32f4xx/libraries/CMSIS/Include/cmsis_gcc.h **** #endif
  38:./flight/uvos/stm32f4xx/libraries/CMSIS/Include/cmsis_gcc.h **** 
  39:./flight/uvos/stm32f4xx/libraries/CMSIS/Include/cmsis_gcc.h **** /* CMSIS compiler specific defines */
  40:./flight/uvos/stm32f4xx/libraries/CMSIS/Include/cmsis_gcc.h **** #ifndef   __ASM
  41:./flight/uvos/stm32f4xx/libraries/CMSIS/Include/cmsis_gcc.h ****   #define __ASM                                  __asm
  42:./flight/uvos/stm32f4xx/libraries/CMSIS/Include/cmsis_gcc.h **** #endif
  43:./flight/uvos/stm32f4xx/libraries/CMSIS/Include/cmsis_gcc.h **** #ifndef   __INLINE
  44:./flight/uvos/stm32f4xx/libraries/CMSIS/Include/cmsis_gcc.h ****   #define __INLINE                               inline
  45:./flight/uvos/stm32f4xx/libraries/CMSIS/Include/cmsis_gcc.h **** #endif
  46:./flight/uvos/stm32f4xx/libraries/CMSIS/Include/cmsis_gcc.h **** #ifndef   __STATIC_INLINE
  47:./flight/uvos/stm32f4xx/libraries/CMSIS/Include/cmsis_gcc.h ****   #define __STATIC_INLINE                        static inline
  48:./flight/uvos/stm32f4xx/libraries/CMSIS/Include/cmsis_gcc.h **** #endif
  49:./flight/uvos/stm32f4xx/libraries/CMSIS/Include/cmsis_gcc.h **** #ifndef   __STATIC_FORCEINLINE                 
  50:./flight/uvos/stm32f4xx/libraries/CMSIS/Include/cmsis_gcc.h ****   #define __STATIC_FORCEINLINE                   __attribute__((always_inline)) static inline
  51:./flight/uvos/stm32f4xx/libraries/CMSIS/Include/cmsis_gcc.h **** #endif                                           
  52:./flight/uvos/stm32f4xx/libraries/CMSIS/Include/cmsis_gcc.h **** #ifndef   __NO_RETURN
  53:./flight/uvos/stm32f4xx/libraries/CMSIS/Include/cmsis_gcc.h ****   #define __NO_RETURN                            __attribute__((__noreturn__))
  54:./flight/uvos/stm32f4xx/libraries/CMSIS/Include/cmsis_gcc.h **** #endif
  55:./flight/uvos/stm32f4xx/libraries/CMSIS/Include/cmsis_gcc.h **** #ifndef   __USED
  56:./flight/uvos/stm32f4xx/libraries/CMSIS/Include/cmsis_gcc.h ****   #define __USED                                 __attribute__((used))
  57:./flight/uvos/stm32f4xx/libraries/CMSIS/Include/cmsis_gcc.h **** #endif
  58:./flight/uvos/stm32f4xx/libraries/CMSIS/Include/cmsis_gcc.h **** #ifndef   __WEAK
  59:./flight/uvos/stm32f4xx/libraries/CMSIS/Include/cmsis_gcc.h ****   #define __WEAK                                 __attribute__((weak))
  60:./flight/uvos/stm32f4xx/libraries/CMSIS/Include/cmsis_gcc.h **** #endif
  61:./flight/uvos/stm32f4xx/libraries/CMSIS/Include/cmsis_gcc.h **** #ifndef   __PACKED
  62:./flight/uvos/stm32f4xx/libraries/CMSIS/Include/cmsis_gcc.h ****   #define __PACKED                               __attribute__((packed, aligned(1)))
  63:./flight/uvos/stm32f4xx/libraries/CMSIS/Include/cmsis_gcc.h **** #endif
  64:./flight/uvos/stm32f4xx/libraries/CMSIS/Include/cmsis_gcc.h **** #ifndef   __PACKED_STRUCT
  65:./flight/uvos/stm32f4xx/libraries/CMSIS/Include/cmsis_gcc.h ****   #define __PACKED_STRUCT                        struct __attribute__((packed, aligned(1)))
  66:./flight/uvos/stm32f4xx/libraries/CMSIS/Include/cmsis_gcc.h **** #endif
  67:./flight/uvos/stm32f4xx/libraries/CMSIS/Include/cmsis_gcc.h **** #ifndef   __PACKED_UNION
  68:./flight/uvos/stm32f4xx/libraries/CMSIS/Include/cmsis_gcc.h ****   #define __PACKED_UNION                         union __attribute__((packed, aligned(1)))
  69:./flight/uvos/stm32f4xx/libraries/CMSIS/Include/cmsis_gcc.h **** #endif
  70:./flight/uvos/stm32f4xx/libraries/CMSIS/Include/cmsis_gcc.h **** #ifndef   __UNALIGNED_UINT32        /* deprecated */
  71:./flight/uvos/stm32f4xx/libraries/CMSIS/Include/cmsis_gcc.h ****   #pragma GCC diagnostic push
  72:./flight/uvos/stm32f4xx/libraries/CMSIS/Include/cmsis_gcc.h ****   #pragma GCC diagnostic ignored "-Wpacked"
  73:./flight/uvos/stm32f4xx/libraries/CMSIS/Include/cmsis_gcc.h ****   #pragma GCC diagnostic ignored "-Wattributes"
  74:./flight/uvos/stm32f4xx/libraries/CMSIS/Include/cmsis_gcc.h ****   struct __attribute__((packed)) T_UINT32 { uint32_t v; };
  75:./flight/uvos/stm32f4xx/libraries/CMSIS/Include/cmsis_gcc.h ****   #pragma GCC diagnostic pop
  76:./flight/uvos/stm32f4xx/libraries/CMSIS/Include/cmsis_gcc.h ****   #define __UNALIGNED_UINT32(x)                  (((struct T_UINT32 *)(x))->v)
  77:./flight/uvos/stm32f4xx/libraries/CMSIS/Include/cmsis_gcc.h **** #endif
  78:./flight/uvos/stm32f4xx/libraries/CMSIS/Include/cmsis_gcc.h **** #ifndef   __UNALIGNED_UINT16_WRITE
  79:./flight/uvos/stm32f4xx/libraries/CMSIS/Include/cmsis_gcc.h ****   #pragma GCC diagnostic push
  80:./flight/uvos/stm32f4xx/libraries/CMSIS/Include/cmsis_gcc.h ****   #pragma GCC diagnostic ignored "-Wpacked"
  81:./flight/uvos/stm32f4xx/libraries/CMSIS/Include/cmsis_gcc.h ****   #pragma GCC diagnostic ignored "-Wattributes"
  82:./flight/uvos/stm32f4xx/libraries/CMSIS/Include/cmsis_gcc.h ****   __PACKED_STRUCT T_UINT16_WRITE { uint16_t v; };
  83:./flight/uvos/stm32f4xx/libraries/CMSIS/Include/cmsis_gcc.h ****   #pragma GCC diagnostic pop
  84:./flight/uvos/stm32f4xx/libraries/CMSIS/Include/cmsis_gcc.h ****   #define __UNALIGNED_UINT16_WRITE(addr, val)    (void)((((struct T_UINT16_WRITE *)(void *)(addr))-
  85:./flight/uvos/stm32f4xx/libraries/CMSIS/Include/cmsis_gcc.h **** #endif
  86:./flight/uvos/stm32f4xx/libraries/CMSIS/Include/cmsis_gcc.h **** #ifndef   __UNALIGNED_UINT16_READ
  87:./flight/uvos/stm32f4xx/libraries/CMSIS/Include/cmsis_gcc.h ****   #pragma GCC diagnostic push
  88:./flight/uvos/stm32f4xx/libraries/CMSIS/Include/cmsis_gcc.h ****   #pragma GCC diagnostic ignored "-Wpacked"
  89:./flight/uvos/stm32f4xx/libraries/CMSIS/Include/cmsis_gcc.h ****   #pragma GCC diagnostic ignored "-Wattributes"
  90:./flight/uvos/stm32f4xx/libraries/CMSIS/Include/cmsis_gcc.h ****   __PACKED_STRUCT T_UINT16_READ { uint16_t v; };
  91:./flight/uvos/stm32f4xx/libraries/CMSIS/Include/cmsis_gcc.h ****   #pragma GCC diagnostic pop
ARM GAS  C:\Users\geoma\AppData\Local\Temp\ccvQ1Tua.s 			page 4


  92:./flight/uvos/stm32f4xx/libraries/CMSIS/Include/cmsis_gcc.h ****   #define __UNALIGNED_UINT16_READ(addr)          (((const struct T_UINT16_READ *)(const void *)(add
  93:./flight/uvos/stm32f4xx/libraries/CMSIS/Include/cmsis_gcc.h **** #endif
  94:./flight/uvos/stm32f4xx/libraries/CMSIS/Include/cmsis_gcc.h **** #ifndef   __UNALIGNED_UINT32_WRITE
  95:./flight/uvos/stm32f4xx/libraries/CMSIS/Include/cmsis_gcc.h ****   #pragma GCC diagnostic push
  96:./flight/uvos/stm32f4xx/libraries/CMSIS/Include/cmsis_gcc.h ****   #pragma GCC diagnostic ignored "-Wpacked"
  97:./flight/uvos/stm32f4xx/libraries/CMSIS/Include/cmsis_gcc.h ****   #pragma GCC diagnostic ignored "-Wattributes"
  98:./flight/uvos/stm32f4xx/libraries/CMSIS/Include/cmsis_gcc.h ****   __PACKED_STRUCT T_UINT32_WRITE { uint32_t v; };
  99:./flight/uvos/stm32f4xx/libraries/CMSIS/Include/cmsis_gcc.h ****   #pragma GCC diagnostic pop
 100:./flight/uvos/stm32f4xx/libraries/CMSIS/Include/cmsis_gcc.h ****   #define __UNALIGNED_UINT32_WRITE(addr, val)    (void)((((struct T_UINT32_WRITE *)(void *)(addr))-
 101:./flight/uvos/stm32f4xx/libraries/CMSIS/Include/cmsis_gcc.h **** #endif
 102:./flight/uvos/stm32f4xx/libraries/CMSIS/Include/cmsis_gcc.h **** #ifndef   __UNALIGNED_UINT32_READ
 103:./flight/uvos/stm32f4xx/libraries/CMSIS/Include/cmsis_gcc.h ****   #pragma GCC diagnostic push
 104:./flight/uvos/stm32f4xx/libraries/CMSIS/Include/cmsis_gcc.h ****   #pragma GCC diagnostic ignored "-Wpacked"
 105:./flight/uvos/stm32f4xx/libraries/CMSIS/Include/cmsis_gcc.h ****   #pragma GCC diagnostic ignored "-Wattributes"
 106:./flight/uvos/stm32f4xx/libraries/CMSIS/Include/cmsis_gcc.h ****   __PACKED_STRUCT T_UINT32_READ { uint32_t v; };
 107:./flight/uvos/stm32f4xx/libraries/CMSIS/Include/cmsis_gcc.h ****   #pragma GCC diagnostic pop
 108:./flight/uvos/stm32f4xx/libraries/CMSIS/Include/cmsis_gcc.h ****   #define __UNALIGNED_UINT32_READ(addr)          (((const struct T_UINT32_READ *)(const void *)(add
 109:./flight/uvos/stm32f4xx/libraries/CMSIS/Include/cmsis_gcc.h **** #endif
 110:./flight/uvos/stm32f4xx/libraries/CMSIS/Include/cmsis_gcc.h **** #ifndef   __ALIGNED
 111:./flight/uvos/stm32f4xx/libraries/CMSIS/Include/cmsis_gcc.h ****   #define __ALIGNED(x)                           __attribute__((aligned(x)))
 112:./flight/uvos/stm32f4xx/libraries/CMSIS/Include/cmsis_gcc.h **** #endif
 113:./flight/uvos/stm32f4xx/libraries/CMSIS/Include/cmsis_gcc.h **** #ifndef   __RESTRICT
 114:./flight/uvos/stm32f4xx/libraries/CMSIS/Include/cmsis_gcc.h ****   #define __RESTRICT                             __restrict
 115:./flight/uvos/stm32f4xx/libraries/CMSIS/Include/cmsis_gcc.h **** #endif
 116:./flight/uvos/stm32f4xx/libraries/CMSIS/Include/cmsis_gcc.h **** 
 117:./flight/uvos/stm32f4xx/libraries/CMSIS/Include/cmsis_gcc.h **** 
 118:./flight/uvos/stm32f4xx/libraries/CMSIS/Include/cmsis_gcc.h **** /* ###########################  Core Function Access  ########################### */
 119:./flight/uvos/stm32f4xx/libraries/CMSIS/Include/cmsis_gcc.h **** /** \ingroup  CMSIS_Core_FunctionInterface
 120:./flight/uvos/stm32f4xx/libraries/CMSIS/Include/cmsis_gcc.h ****     \defgroup CMSIS_Core_RegAccFunctions CMSIS Core Register Access Functions
 121:./flight/uvos/stm32f4xx/libraries/CMSIS/Include/cmsis_gcc.h ****   @{
 122:./flight/uvos/stm32f4xx/libraries/CMSIS/Include/cmsis_gcc.h ****  */
 123:./flight/uvos/stm32f4xx/libraries/CMSIS/Include/cmsis_gcc.h **** 
 124:./flight/uvos/stm32f4xx/libraries/CMSIS/Include/cmsis_gcc.h **** /**
 125:./flight/uvos/stm32f4xx/libraries/CMSIS/Include/cmsis_gcc.h ****   \brief   Enable IRQ Interrupts
 126:./flight/uvos/stm32f4xx/libraries/CMSIS/Include/cmsis_gcc.h ****   \details Enables IRQ interrupts by clearing the I-bit in the CPSR.
 127:./flight/uvos/stm32f4xx/libraries/CMSIS/Include/cmsis_gcc.h ****            Can only be executed in Privileged modes.
 128:./flight/uvos/stm32f4xx/libraries/CMSIS/Include/cmsis_gcc.h ****  */
 129:./flight/uvos/stm32f4xx/libraries/CMSIS/Include/cmsis_gcc.h **** __STATIC_FORCEINLINE void __enable_irq(void)
 130:./flight/uvos/stm32f4xx/libraries/CMSIS/Include/cmsis_gcc.h **** {
 131:./flight/uvos/stm32f4xx/libraries/CMSIS/Include/cmsis_gcc.h ****   __ASM volatile ("cpsie i" : : : "memory");
 132:./flight/uvos/stm32f4xx/libraries/CMSIS/Include/cmsis_gcc.h **** }
 133:./flight/uvos/stm32f4xx/libraries/CMSIS/Include/cmsis_gcc.h **** 
 134:./flight/uvos/stm32f4xx/libraries/CMSIS/Include/cmsis_gcc.h **** 
 135:./flight/uvos/stm32f4xx/libraries/CMSIS/Include/cmsis_gcc.h **** /**
 136:./flight/uvos/stm32f4xx/libraries/CMSIS/Include/cmsis_gcc.h ****   \brief   Disable IRQ Interrupts
 137:./flight/uvos/stm32f4xx/libraries/CMSIS/Include/cmsis_gcc.h ****   \details Disables IRQ interrupts by setting the I-bit in the CPSR.
 138:./flight/uvos/stm32f4xx/libraries/CMSIS/Include/cmsis_gcc.h ****            Can only be executed in Privileged modes.
 139:./flight/uvos/stm32f4xx/libraries/CMSIS/Include/cmsis_gcc.h ****  */
 140:./flight/uvos/stm32f4xx/libraries/CMSIS/Include/cmsis_gcc.h **** __STATIC_FORCEINLINE void __disable_irq(void)
 141:./flight/uvos/stm32f4xx/libraries/CMSIS/Include/cmsis_gcc.h **** {
 142:./flight/uvos/stm32f4xx/libraries/CMSIS/Include/cmsis_gcc.h ****   __ASM volatile ("cpsid i" : : : "memory");
 143:./flight/uvos/stm32f4xx/libraries/CMSIS/Include/cmsis_gcc.h **** }
 144:./flight/uvos/stm32f4xx/libraries/CMSIS/Include/cmsis_gcc.h **** 
 145:./flight/uvos/stm32f4xx/libraries/CMSIS/Include/cmsis_gcc.h **** 
 146:./flight/uvos/stm32f4xx/libraries/CMSIS/Include/cmsis_gcc.h **** /**
 147:./flight/uvos/stm32f4xx/libraries/CMSIS/Include/cmsis_gcc.h ****   \brief   Get Control Register
 148:./flight/uvos/stm32f4xx/libraries/CMSIS/Include/cmsis_gcc.h ****   \details Returns the content of the Control Register.
ARM GAS  C:\Users\geoma\AppData\Local\Temp\ccvQ1Tua.s 			page 5


 149:./flight/uvos/stm32f4xx/libraries/CMSIS/Include/cmsis_gcc.h ****   \return               Control Register value
 150:./flight/uvos/stm32f4xx/libraries/CMSIS/Include/cmsis_gcc.h ****  */
 151:./flight/uvos/stm32f4xx/libraries/CMSIS/Include/cmsis_gcc.h **** __STATIC_FORCEINLINE uint32_t __get_CONTROL(void)
 152:./flight/uvos/stm32f4xx/libraries/CMSIS/Include/cmsis_gcc.h **** {
 153:./flight/uvos/stm32f4xx/libraries/CMSIS/Include/cmsis_gcc.h ****   uint32_t result;
 154:./flight/uvos/stm32f4xx/libraries/CMSIS/Include/cmsis_gcc.h **** 
 155:./flight/uvos/stm32f4xx/libraries/CMSIS/Include/cmsis_gcc.h ****   __ASM volatile ("MRS %0, control" : "=r" (result) );
 156:./flight/uvos/stm32f4xx/libraries/CMSIS/Include/cmsis_gcc.h ****   return(result);
 157:./flight/uvos/stm32f4xx/libraries/CMSIS/Include/cmsis_gcc.h **** }
 158:./flight/uvos/stm32f4xx/libraries/CMSIS/Include/cmsis_gcc.h **** 
 159:./flight/uvos/stm32f4xx/libraries/CMSIS/Include/cmsis_gcc.h **** 
 160:./flight/uvos/stm32f4xx/libraries/CMSIS/Include/cmsis_gcc.h **** #if (defined (__ARM_FEATURE_CMSE ) && (__ARM_FEATURE_CMSE == 3))
 161:./flight/uvos/stm32f4xx/libraries/CMSIS/Include/cmsis_gcc.h **** /**
 162:./flight/uvos/stm32f4xx/libraries/CMSIS/Include/cmsis_gcc.h ****   \brief   Get Control Register (non-secure)
 163:./flight/uvos/stm32f4xx/libraries/CMSIS/Include/cmsis_gcc.h ****   \details Returns the content of the non-secure Control Register when in secure mode.
 164:./flight/uvos/stm32f4xx/libraries/CMSIS/Include/cmsis_gcc.h ****   \return               non-secure Control Register value
 165:./flight/uvos/stm32f4xx/libraries/CMSIS/Include/cmsis_gcc.h ****  */
 166:./flight/uvos/stm32f4xx/libraries/CMSIS/Include/cmsis_gcc.h **** __STATIC_FORCEINLINE uint32_t __TZ_get_CONTROL_NS(void)
 167:./flight/uvos/stm32f4xx/libraries/CMSIS/Include/cmsis_gcc.h **** {
 168:./flight/uvos/stm32f4xx/libraries/CMSIS/Include/cmsis_gcc.h ****   uint32_t result;
 169:./flight/uvos/stm32f4xx/libraries/CMSIS/Include/cmsis_gcc.h **** 
 170:./flight/uvos/stm32f4xx/libraries/CMSIS/Include/cmsis_gcc.h ****   __ASM volatile ("MRS %0, control_ns" : "=r" (result) );
 171:./flight/uvos/stm32f4xx/libraries/CMSIS/Include/cmsis_gcc.h ****   return(result);
 172:./flight/uvos/stm32f4xx/libraries/CMSIS/Include/cmsis_gcc.h **** }
 173:./flight/uvos/stm32f4xx/libraries/CMSIS/Include/cmsis_gcc.h **** #endif
 174:./flight/uvos/stm32f4xx/libraries/CMSIS/Include/cmsis_gcc.h **** 
 175:./flight/uvos/stm32f4xx/libraries/CMSIS/Include/cmsis_gcc.h **** 
 176:./flight/uvos/stm32f4xx/libraries/CMSIS/Include/cmsis_gcc.h **** /**
 177:./flight/uvos/stm32f4xx/libraries/CMSIS/Include/cmsis_gcc.h ****   \brief   Set Control Register
 178:./flight/uvos/stm32f4xx/libraries/CMSIS/Include/cmsis_gcc.h ****   \details Writes the given value to the Control Register.
 179:./flight/uvos/stm32f4xx/libraries/CMSIS/Include/cmsis_gcc.h ****   \param [in]    control  Control Register value to set
 180:./flight/uvos/stm32f4xx/libraries/CMSIS/Include/cmsis_gcc.h ****  */
 181:./flight/uvos/stm32f4xx/libraries/CMSIS/Include/cmsis_gcc.h **** __STATIC_FORCEINLINE void __set_CONTROL(uint32_t control)
 182:./flight/uvos/stm32f4xx/libraries/CMSIS/Include/cmsis_gcc.h **** {
 183:./flight/uvos/stm32f4xx/libraries/CMSIS/Include/cmsis_gcc.h ****   __ASM volatile ("MSR control, %0" : : "r" (control) : "memory");
 184:./flight/uvos/stm32f4xx/libraries/CMSIS/Include/cmsis_gcc.h **** }
 185:./flight/uvos/stm32f4xx/libraries/CMSIS/Include/cmsis_gcc.h **** 
 186:./flight/uvos/stm32f4xx/libraries/CMSIS/Include/cmsis_gcc.h **** 
 187:./flight/uvos/stm32f4xx/libraries/CMSIS/Include/cmsis_gcc.h **** #if (defined (__ARM_FEATURE_CMSE ) && (__ARM_FEATURE_CMSE == 3))
 188:./flight/uvos/stm32f4xx/libraries/CMSIS/Include/cmsis_gcc.h **** /**
 189:./flight/uvos/stm32f4xx/libraries/CMSIS/Include/cmsis_gcc.h ****   \brief   Set Control Register (non-secure)
 190:./flight/uvos/stm32f4xx/libraries/CMSIS/Include/cmsis_gcc.h ****   \details Writes the given value to the non-secure Control Register when in secure state.
 191:./flight/uvos/stm32f4xx/libraries/CMSIS/Include/cmsis_gcc.h ****   \param [in]    control  Control Register value to set
 192:./flight/uvos/stm32f4xx/libraries/CMSIS/Include/cmsis_gcc.h ****  */
 193:./flight/uvos/stm32f4xx/libraries/CMSIS/Include/cmsis_gcc.h **** __STATIC_FORCEINLINE void __TZ_set_CONTROL_NS(uint32_t control)
 194:./flight/uvos/stm32f4xx/libraries/CMSIS/Include/cmsis_gcc.h **** {
 195:./flight/uvos/stm32f4xx/libraries/CMSIS/Include/cmsis_gcc.h ****   __ASM volatile ("MSR control_ns, %0" : : "r" (control) : "memory");
 196:./flight/uvos/stm32f4xx/libraries/CMSIS/Include/cmsis_gcc.h **** }
 197:./flight/uvos/stm32f4xx/libraries/CMSIS/Include/cmsis_gcc.h **** #endif
 198:./flight/uvos/stm32f4xx/libraries/CMSIS/Include/cmsis_gcc.h **** 
 199:./flight/uvos/stm32f4xx/libraries/CMSIS/Include/cmsis_gcc.h **** 
 200:./flight/uvos/stm32f4xx/libraries/CMSIS/Include/cmsis_gcc.h **** /**
 201:./flight/uvos/stm32f4xx/libraries/CMSIS/Include/cmsis_gcc.h ****   \brief   Get IPSR Register
 202:./flight/uvos/stm32f4xx/libraries/CMSIS/Include/cmsis_gcc.h ****   \details Returns the content of the IPSR Register.
 203:./flight/uvos/stm32f4xx/libraries/CMSIS/Include/cmsis_gcc.h ****   \return               IPSR Register value
 204:./flight/uvos/stm32f4xx/libraries/CMSIS/Include/cmsis_gcc.h ****  */
 205:./flight/uvos/stm32f4xx/libraries/CMSIS/Include/cmsis_gcc.h **** __STATIC_FORCEINLINE uint32_t __get_IPSR(void)
ARM GAS  C:\Users\geoma\AppData\Local\Temp\ccvQ1Tua.s 			page 6


 206:./flight/uvos/stm32f4xx/libraries/CMSIS/Include/cmsis_gcc.h **** {
 207:./flight/uvos/stm32f4xx/libraries/CMSIS/Include/cmsis_gcc.h ****   uint32_t result;
 208:./flight/uvos/stm32f4xx/libraries/CMSIS/Include/cmsis_gcc.h **** 
 209:./flight/uvos/stm32f4xx/libraries/CMSIS/Include/cmsis_gcc.h ****   __ASM volatile ("MRS %0, ipsr" : "=r" (result) );
 210:./flight/uvos/stm32f4xx/libraries/CMSIS/Include/cmsis_gcc.h ****   return(result);
 211:./flight/uvos/stm32f4xx/libraries/CMSIS/Include/cmsis_gcc.h **** }
 212:./flight/uvos/stm32f4xx/libraries/CMSIS/Include/cmsis_gcc.h **** 
 213:./flight/uvos/stm32f4xx/libraries/CMSIS/Include/cmsis_gcc.h **** 
 214:./flight/uvos/stm32f4xx/libraries/CMSIS/Include/cmsis_gcc.h **** /**
 215:./flight/uvos/stm32f4xx/libraries/CMSIS/Include/cmsis_gcc.h ****   \brief   Get APSR Register
 216:./flight/uvos/stm32f4xx/libraries/CMSIS/Include/cmsis_gcc.h ****   \details Returns the content of the APSR Register.
 217:./flight/uvos/stm32f4xx/libraries/CMSIS/Include/cmsis_gcc.h ****   \return               APSR Register value
 218:./flight/uvos/stm32f4xx/libraries/CMSIS/Include/cmsis_gcc.h ****  */
 219:./flight/uvos/stm32f4xx/libraries/CMSIS/Include/cmsis_gcc.h **** __STATIC_FORCEINLINE uint32_t __get_APSR(void)
 220:./flight/uvos/stm32f4xx/libraries/CMSIS/Include/cmsis_gcc.h **** {
 221:./flight/uvos/stm32f4xx/libraries/CMSIS/Include/cmsis_gcc.h ****   uint32_t result;
 222:./flight/uvos/stm32f4xx/libraries/CMSIS/Include/cmsis_gcc.h **** 
 223:./flight/uvos/stm32f4xx/libraries/CMSIS/Include/cmsis_gcc.h ****   __ASM volatile ("MRS %0, apsr" : "=r" (result) );
 224:./flight/uvos/stm32f4xx/libraries/CMSIS/Include/cmsis_gcc.h ****   return(result);
 225:./flight/uvos/stm32f4xx/libraries/CMSIS/Include/cmsis_gcc.h **** }
 226:./flight/uvos/stm32f4xx/libraries/CMSIS/Include/cmsis_gcc.h **** 
 227:./flight/uvos/stm32f4xx/libraries/CMSIS/Include/cmsis_gcc.h **** 
 228:./flight/uvos/stm32f4xx/libraries/CMSIS/Include/cmsis_gcc.h **** /**
 229:./flight/uvos/stm32f4xx/libraries/CMSIS/Include/cmsis_gcc.h ****   \brief   Get xPSR Register
 230:./flight/uvos/stm32f4xx/libraries/CMSIS/Include/cmsis_gcc.h ****   \details Returns the content of the xPSR Register.
 231:./flight/uvos/stm32f4xx/libraries/CMSIS/Include/cmsis_gcc.h ****   \return               xPSR Register value
 232:./flight/uvos/stm32f4xx/libraries/CMSIS/Include/cmsis_gcc.h ****  */
 233:./flight/uvos/stm32f4xx/libraries/CMSIS/Include/cmsis_gcc.h **** __STATIC_FORCEINLINE uint32_t __get_xPSR(void)
 234:./flight/uvos/stm32f4xx/libraries/CMSIS/Include/cmsis_gcc.h **** {
 235:./flight/uvos/stm32f4xx/libraries/CMSIS/Include/cmsis_gcc.h ****   uint32_t result;
 236:./flight/uvos/stm32f4xx/libraries/CMSIS/Include/cmsis_gcc.h **** 
 237:./flight/uvos/stm32f4xx/libraries/CMSIS/Include/cmsis_gcc.h ****   __ASM volatile ("MRS %0, xpsr" : "=r" (result) );
 238:./flight/uvos/stm32f4xx/libraries/CMSIS/Include/cmsis_gcc.h ****   return(result);
 239:./flight/uvos/stm32f4xx/libraries/CMSIS/Include/cmsis_gcc.h **** }
 240:./flight/uvos/stm32f4xx/libraries/CMSIS/Include/cmsis_gcc.h **** 
 241:./flight/uvos/stm32f4xx/libraries/CMSIS/Include/cmsis_gcc.h **** 
 242:./flight/uvos/stm32f4xx/libraries/CMSIS/Include/cmsis_gcc.h **** /**
 243:./flight/uvos/stm32f4xx/libraries/CMSIS/Include/cmsis_gcc.h ****   \brief   Get Process Stack Pointer
 244:./flight/uvos/stm32f4xx/libraries/CMSIS/Include/cmsis_gcc.h ****   \details Returns the current value of the Process Stack Pointer (PSP).
 245:./flight/uvos/stm32f4xx/libraries/CMSIS/Include/cmsis_gcc.h ****   \return               PSP Register value
 246:./flight/uvos/stm32f4xx/libraries/CMSIS/Include/cmsis_gcc.h ****  */
 247:./flight/uvos/stm32f4xx/libraries/CMSIS/Include/cmsis_gcc.h **** __STATIC_FORCEINLINE uint32_t __get_PSP(void)
 248:./flight/uvos/stm32f4xx/libraries/CMSIS/Include/cmsis_gcc.h **** {
 249:./flight/uvos/stm32f4xx/libraries/CMSIS/Include/cmsis_gcc.h ****   uint32_t result;
 250:./flight/uvos/stm32f4xx/libraries/CMSIS/Include/cmsis_gcc.h **** 
 251:./flight/uvos/stm32f4xx/libraries/CMSIS/Include/cmsis_gcc.h ****   __ASM volatile ("MRS %0, psp"  : "=r" (result) );
 252:./flight/uvos/stm32f4xx/libraries/CMSIS/Include/cmsis_gcc.h ****   return(result);
 253:./flight/uvos/stm32f4xx/libraries/CMSIS/Include/cmsis_gcc.h **** }
 254:./flight/uvos/stm32f4xx/libraries/CMSIS/Include/cmsis_gcc.h **** 
 255:./flight/uvos/stm32f4xx/libraries/CMSIS/Include/cmsis_gcc.h **** 
 256:./flight/uvos/stm32f4xx/libraries/CMSIS/Include/cmsis_gcc.h **** #if (defined (__ARM_FEATURE_CMSE ) && (__ARM_FEATURE_CMSE == 3))
 257:./flight/uvos/stm32f4xx/libraries/CMSIS/Include/cmsis_gcc.h **** /**
 258:./flight/uvos/stm32f4xx/libraries/CMSIS/Include/cmsis_gcc.h ****   \brief   Get Process Stack Pointer (non-secure)
 259:./flight/uvos/stm32f4xx/libraries/CMSIS/Include/cmsis_gcc.h ****   \details Returns the current value of the non-secure Process Stack Pointer (PSP) when in secure s
 260:./flight/uvos/stm32f4xx/libraries/CMSIS/Include/cmsis_gcc.h ****   \return               PSP Register value
 261:./flight/uvos/stm32f4xx/libraries/CMSIS/Include/cmsis_gcc.h ****  */
 262:./flight/uvos/stm32f4xx/libraries/CMSIS/Include/cmsis_gcc.h **** __STATIC_FORCEINLINE uint32_t __TZ_get_PSP_NS(void)
ARM GAS  C:\Users\geoma\AppData\Local\Temp\ccvQ1Tua.s 			page 7


 263:./flight/uvos/stm32f4xx/libraries/CMSIS/Include/cmsis_gcc.h **** {
 264:./flight/uvos/stm32f4xx/libraries/CMSIS/Include/cmsis_gcc.h ****   uint32_t result;
 265:./flight/uvos/stm32f4xx/libraries/CMSIS/Include/cmsis_gcc.h **** 
 266:./flight/uvos/stm32f4xx/libraries/CMSIS/Include/cmsis_gcc.h ****   __ASM volatile ("MRS %0, psp_ns"  : "=r" (result) );
 267:./flight/uvos/stm32f4xx/libraries/CMSIS/Include/cmsis_gcc.h ****   return(result);
 268:./flight/uvos/stm32f4xx/libraries/CMSIS/Include/cmsis_gcc.h **** }
 269:./flight/uvos/stm32f4xx/libraries/CMSIS/Include/cmsis_gcc.h **** #endif
 270:./flight/uvos/stm32f4xx/libraries/CMSIS/Include/cmsis_gcc.h **** 
 271:./flight/uvos/stm32f4xx/libraries/CMSIS/Include/cmsis_gcc.h **** 
 272:./flight/uvos/stm32f4xx/libraries/CMSIS/Include/cmsis_gcc.h **** /**
 273:./flight/uvos/stm32f4xx/libraries/CMSIS/Include/cmsis_gcc.h ****   \brief   Set Process Stack Pointer
 274:./flight/uvos/stm32f4xx/libraries/CMSIS/Include/cmsis_gcc.h ****   \details Assigns the given value to the Process Stack Pointer (PSP).
 275:./flight/uvos/stm32f4xx/libraries/CMSIS/Include/cmsis_gcc.h ****   \param [in]    topOfProcStack  Process Stack Pointer value to set
 276:./flight/uvos/stm32f4xx/libraries/CMSIS/Include/cmsis_gcc.h ****  */
 277:./flight/uvos/stm32f4xx/libraries/CMSIS/Include/cmsis_gcc.h **** __STATIC_FORCEINLINE void __set_PSP(uint32_t topOfProcStack)
 278:./flight/uvos/stm32f4xx/libraries/CMSIS/Include/cmsis_gcc.h **** {
 279:./flight/uvos/stm32f4xx/libraries/CMSIS/Include/cmsis_gcc.h ****   __ASM volatile ("MSR psp, %0" : : "r" (topOfProcStack) : );
 280:./flight/uvos/stm32f4xx/libraries/CMSIS/Include/cmsis_gcc.h **** }
 281:./flight/uvos/stm32f4xx/libraries/CMSIS/Include/cmsis_gcc.h **** 
 282:./flight/uvos/stm32f4xx/libraries/CMSIS/Include/cmsis_gcc.h **** 
 283:./flight/uvos/stm32f4xx/libraries/CMSIS/Include/cmsis_gcc.h **** #if (defined (__ARM_FEATURE_CMSE ) && (__ARM_FEATURE_CMSE == 3))
 284:./flight/uvos/stm32f4xx/libraries/CMSIS/Include/cmsis_gcc.h **** /**
 285:./flight/uvos/stm32f4xx/libraries/CMSIS/Include/cmsis_gcc.h ****   \brief   Set Process Stack Pointer (non-secure)
 286:./flight/uvos/stm32f4xx/libraries/CMSIS/Include/cmsis_gcc.h ****   \details Assigns the given value to the non-secure Process Stack Pointer (PSP) when in secure sta
 287:./flight/uvos/stm32f4xx/libraries/CMSIS/Include/cmsis_gcc.h ****   \param [in]    topOfProcStack  Process Stack Pointer value to set
 288:./flight/uvos/stm32f4xx/libraries/CMSIS/Include/cmsis_gcc.h ****  */
 289:./flight/uvos/stm32f4xx/libraries/CMSIS/Include/cmsis_gcc.h **** __STATIC_FORCEINLINE void __TZ_set_PSP_NS(uint32_t topOfProcStack)
 290:./flight/uvos/stm32f4xx/libraries/CMSIS/Include/cmsis_gcc.h **** {
 291:./flight/uvos/stm32f4xx/libraries/CMSIS/Include/cmsis_gcc.h ****   __ASM volatile ("MSR psp_ns, %0" : : "r" (topOfProcStack) : );
 292:./flight/uvos/stm32f4xx/libraries/CMSIS/Include/cmsis_gcc.h **** }
 293:./flight/uvos/stm32f4xx/libraries/CMSIS/Include/cmsis_gcc.h **** #endif
 294:./flight/uvos/stm32f4xx/libraries/CMSIS/Include/cmsis_gcc.h **** 
 295:./flight/uvos/stm32f4xx/libraries/CMSIS/Include/cmsis_gcc.h **** 
 296:./flight/uvos/stm32f4xx/libraries/CMSIS/Include/cmsis_gcc.h **** /**
 297:./flight/uvos/stm32f4xx/libraries/CMSIS/Include/cmsis_gcc.h ****   \brief   Get Main Stack Pointer
 298:./flight/uvos/stm32f4xx/libraries/CMSIS/Include/cmsis_gcc.h ****   \details Returns the current value of the Main Stack Pointer (MSP).
 299:./flight/uvos/stm32f4xx/libraries/CMSIS/Include/cmsis_gcc.h ****   \return               MSP Register value
 300:./flight/uvos/stm32f4xx/libraries/CMSIS/Include/cmsis_gcc.h ****  */
 301:./flight/uvos/stm32f4xx/libraries/CMSIS/Include/cmsis_gcc.h **** __STATIC_FORCEINLINE uint32_t __get_MSP(void)
  57              		.loc 2 301 31 is_stmt 1 view .LVU10
  58              	.LBB5:
 302:./flight/uvos/stm32f4xx/libraries/CMSIS/Include/cmsis_gcc.h **** {
 303:./flight/uvos/stm32f4xx/libraries/CMSIS/Include/cmsis_gcc.h ****   uint32_t result;
  59              		.loc 2 303 3 view .LVU11
 304:./flight/uvos/stm32f4xx/libraries/CMSIS/Include/cmsis_gcc.h **** 
 305:./flight/uvos/stm32f4xx/libraries/CMSIS/Include/cmsis_gcc.h ****   __ASM volatile ("MRS %0, msp" : "=r" (result) );
  60              		.loc 2 305 3 view .LVU12
  61              		.syntax unified
  62              	@ 305 "./flight/uvos/stm32f4xx/libraries/CMSIS/Include/cmsis_gcc.h" 1
  63 000a EFF30882 		MRS r2, msp
  64              	@ 0 "" 2
  65              	.LVL3:
 306:./flight/uvos/stm32f4xx/libraries/CMSIS/Include/cmsis_gcc.h ****   return(result);
  66              		.loc 2 306 3 view .LVU13
  67              		.loc 2 306 3 is_stmt 0 view .LVU14
  68              		.thumb
  69              		.syntax unified
ARM GAS  C:\Users\geoma\AppData\Local\Temp\ccvQ1Tua.s 			page 8


  70              	.LBE5:
  71              	.LBE4:
  72              		.loc 1 25 5 view .LVU15
  73 000e 9342     		cmp	r3, r2
  74 0010 07D8     		bhi	.L6
  26:flight/uvos/common/syscalls.c **** 		/* Heap and stack collision */
  27:flight/uvos/common/syscalls.c **** 		errno = ENOMEM;
  28:flight/uvos/common/syscalls.c **** 		return ( caddr_t ) - 1;
  29:flight/uvos/common/syscalls.c **** 	}
  30:flight/uvos/common/syscalls.c **** 	/* Ensure to keep minimun stack size defined in the linker script */
  31:flight/uvos/common/syscalls.c **** 	if ( heap_end + incr >= ( char * )( &_estack - &_Min_Stack_Size ) ) {
  75              		.loc 1 31 2 is_stmt 1 view .LVU16
  76              		.loc 1 31 47 is_stmt 0 view .LVU17
  77 0012 0C4A     		ldr	r2, .L8+4
  78 0014 0C49     		ldr	r1, .L8+8
  79 0016 521A     		subs	r2, r2, r1
  80              		.loc 1 31 5 view .LVU18
  81 0018 9342     		cmp	r3, r2
  82 001a 09D2     		bcs	.L7
  32:flight/uvos/common/syscalls.c **** 		errno = ENOMEM;
  33:flight/uvos/common/syscalls.c **** 		return ( caddr_t ) - 1;
  34:flight/uvos/common/syscalls.c **** 	}
  35:flight/uvos/common/syscalls.c **** 
  36:flight/uvos/common/syscalls.c **** 	heap_end += incr ;
  83              		.loc 1 36 2 is_stmt 1 view .LVU19
  84              		.loc 1 36 11 is_stmt 0 view .LVU20
  85 001c 084A     		ldr	r2, .L8
  86 001e 1360     		str	r3, [r2]
  37:flight/uvos/common/syscalls.c **** 	return ( caddr_t ) prev_heap_end ;
  87              		.loc 1 37 2 is_stmt 1 view .LVU21
  88              	.LVL4:
  89              	.L1:
  38:flight/uvos/common/syscalls.c **** }
  90              		.loc 1 38 1 is_stmt 0 view .LVU22
  91 0020 08BD     		pop	{r3, pc}
  92              	.LVL5:
  93              	.L6:
  27:flight/uvos/common/syscalls.c **** 		return ( caddr_t ) - 1;
  94              		.loc 1 27 3 is_stmt 1 view .LVU23
  95 0022 FFF7FEFF 		bl	__errno
  96              	.LVL6:
  27:flight/uvos/common/syscalls.c **** 		return ( caddr_t ) - 1;
  97              		.loc 1 27 9 is_stmt 0 view .LVU24
  98 0026 0C23     		movs	r3, #12
  99 0028 0360     		str	r3, [r0]
  28:flight/uvos/common/syscalls.c **** 	}
 100              		.loc 1 28 3 is_stmt 1 view .LVU25
  28:flight/uvos/common/syscalls.c **** 	}
 101              		.loc 1 28 10 is_stmt 0 view .LVU26
 102 002a 4FF0FF30 		mov	r0, #-1
 103 002e F7E7     		b	.L1
 104              	.LVL7:
 105              	.L7:
  32:flight/uvos/common/syscalls.c **** 		return ( caddr_t ) - 1;
 106              		.loc 1 32 3 is_stmt 1 view .LVU27
 107 0030 FFF7FEFF 		bl	__errno
 108              	.LVL8:
ARM GAS  C:\Users\geoma\AppData\Local\Temp\ccvQ1Tua.s 			page 9


  32:flight/uvos/common/syscalls.c **** 		return ( caddr_t ) - 1;
 109              		.loc 1 32 9 is_stmt 0 view .LVU28
 110 0034 0C23     		movs	r3, #12
 111 0036 0360     		str	r3, [r0]
  33:flight/uvos/common/syscalls.c **** 	}
 112              		.loc 1 33 3 is_stmt 1 view .LVU29
  33:flight/uvos/common/syscalls.c **** 	}
 113              		.loc 1 33 10 is_stmt 0 view .LVU30
 114 0038 4FF0FF30 		mov	r0, #-1
 115 003c F0E7     		b	.L1
 116              	.L9:
 117 003e 00BF     		.align	2
 118              	.L8:
 119 0040 00000000 		.word	.LANCHOR0
 120 0044 00000000 		.word	_estack
 121 0048 00000000 		.word	_Min_Stack_Size
 122              		.cfi_endproc
 123              	.LFE1372:
 125              		.section	.text._close,"ax",%progbits
 126              		.align	1
 127              		.weak	_close
 128              		.syntax unified
 129              		.thumb
 130              		.thumb_func
 132              	_close:
 133              	.LVL9:
 134              	.LFB1373:
  39:flight/uvos/common/syscalls.c **** 
  40:flight/uvos/common/syscalls.c **** __attribute__( ( weak ) )
  41:flight/uvos/common/syscalls.c **** int _close( _UNUSED_( int file ) )
  42:flight/uvos/common/syscalls.c **** {
 135              		.loc 1 42 1 is_stmt 1 view -0
 136              		.cfi_startproc
 137              		@ args = 0, pretend = 0, frame = 0
 138              		@ frame_needed = 0, uses_anonymous_args = 0
 139              		@ link register save eliminated.
  43:flight/uvos/common/syscalls.c **** 	return -1;
 140              		.loc 1 43 2 view .LVU32
  44:flight/uvos/common/syscalls.c **** }
 141              		.loc 1 44 1 is_stmt 0 view .LVU33
 142 0000 4FF0FF30 		mov	r0, #-1
 143              	.LVL10:
 144              		.loc 1 44 1 view .LVU34
 145 0004 7047     		bx	lr
 146              		.cfi_endproc
 147              	.LFE1373:
 149              		.section	.text._fstat,"ax",%progbits
 150              		.align	1
 151              		.weak	_fstat
 152              		.syntax unified
 153              		.thumb
 154              		.thumb_func
 156              	_fstat:
 157              	.LVL11:
 158              	.LFB1374:
  45:flight/uvos/common/syscalls.c **** 
  46:flight/uvos/common/syscalls.c **** __attribute__( ( weak ) )
ARM GAS  C:\Users\geoma\AppData\Local\Temp\ccvQ1Tua.s 			page 10


  47:flight/uvos/common/syscalls.c **** int _fstat( _UNUSED_( int file ), struct stat * st )
  48:flight/uvos/common/syscalls.c **** {
 159              		.loc 1 48 1 is_stmt 1 view -0
 160              		.cfi_startproc
 161              		@ args = 0, pretend = 0, frame = 0
 162              		@ frame_needed = 0, uses_anonymous_args = 0
 163              		@ link register save eliminated.
  49:flight/uvos/common/syscalls.c **** 	st->st_mode = S_IFCHR ;
 164              		.loc 1 49 2 view .LVU36
 165              		.loc 1 49 14 is_stmt 0 view .LVU37
 166 0000 4FF40053 		mov	r3, #8192
 167 0004 4B60     		str	r3, [r1, #4]
  50:flight/uvos/common/syscalls.c **** 	return 0;
 168              		.loc 1 50 2 is_stmt 1 view .LVU38
  51:flight/uvos/common/syscalls.c **** }
 169              		.loc 1 51 1 is_stmt 0 view .LVU39
 170 0006 0020     		movs	r0, #0
 171              	.LVL12:
 172              		.loc 1 51 1 view .LVU40
 173 0008 7047     		bx	lr
 174              		.cfi_endproc
 175              	.LFE1374:
 177              		.section	.text._isatty,"ax",%progbits
 178              		.align	1
 179              		.weak	_isatty
 180              		.syntax unified
 181              		.thumb
 182              		.thumb_func
 184              	_isatty:
 185              	.LVL13:
 186              	.LFB1375:
  52:flight/uvos/common/syscalls.c **** 
  53:flight/uvos/common/syscalls.c **** __attribute__( ( weak ) )
  54:flight/uvos/common/syscalls.c **** int _isatty( _UNUSED_( int file ) )
  55:flight/uvos/common/syscalls.c **** {
 187              		.loc 1 55 1 is_stmt 1 view -0
 188              		.cfi_startproc
 189              		@ args = 0, pretend = 0, frame = 0
 190              		@ frame_needed = 0, uses_anonymous_args = 0
 191              		@ link register save eliminated.
  56:flight/uvos/common/syscalls.c **** 	return 1;
 192              		.loc 1 56 2 view .LVU42
  57:flight/uvos/common/syscalls.c **** }
 193              		.loc 1 57 1 is_stmt 0 view .LVU43
 194 0000 0120     		movs	r0, #1
 195              	.LVL14:
 196              		.loc 1 57 1 view .LVU44
 197 0002 7047     		bx	lr
 198              		.cfi_endproc
 199              	.LFE1375:
 201              		.section	.text._lseek,"ax",%progbits
 202              		.align	1
 203              		.weak	_lseek
 204              		.syntax unified
 205              		.thumb
 206              		.thumb_func
 208              	_lseek:
ARM GAS  C:\Users\geoma\AppData\Local\Temp\ccvQ1Tua.s 			page 11


 209              	.LVL15:
 210              	.LFB1376:
  58:flight/uvos/common/syscalls.c **** 
  59:flight/uvos/common/syscalls.c **** __attribute__( ( weak ) )
  60:flight/uvos/common/syscalls.c **** int _lseek( _UNUSED_( int file ), _UNUSED_( int ptr ), _UNUSED_( int dir ) )
  61:flight/uvos/common/syscalls.c **** {
 211              		.loc 1 61 1 is_stmt 1 view -0
 212              		.cfi_startproc
 213              		@ args = 0, pretend = 0, frame = 0
 214              		@ frame_needed = 0, uses_anonymous_args = 0
 215              		@ link register save eliminated.
  62:flight/uvos/common/syscalls.c **** 	return 0;
 216              		.loc 1 62 2 view .LVU46
  63:flight/uvos/common/syscalls.c **** }
 217              		.loc 1 63 1 is_stmt 0 view .LVU47
 218 0000 0020     		movs	r0, #0
 219              	.LVL16:
 220              		.loc 1 63 1 view .LVU48
 221 0002 7047     		bx	lr
 222              		.cfi_endproc
 223              	.LFE1376:
 225              		.section	.text._read,"ax",%progbits
 226              		.align	1
 227              		.weak	_read
 228              		.syntax unified
 229              		.thumb
 230              		.thumb_func
 232              	_read:
 233              	.LVL17:
 234              	.LFB1377:
  64:flight/uvos/common/syscalls.c **** 
  65:flight/uvos/common/syscalls.c **** __attribute__( ( weak ) )
  66:flight/uvos/common/syscalls.c **** int _read( _UNUSED_( int file ), _UNUSED_( char * ptr ), _UNUSED_( int len ) )
  67:flight/uvos/common/syscalls.c **** {
 235              		.loc 1 67 1 is_stmt 1 view -0
 236              		.cfi_startproc
 237              		@ args = 0, pretend = 0, frame = 0
 238              		@ frame_needed = 0, uses_anonymous_args = 0
 239              		@ link register save eliminated.
  68:flight/uvos/common/syscalls.c **** 	return 0;
 240              		.loc 1 68 2 view .LVU50
  69:flight/uvos/common/syscalls.c **** }
 241              		.loc 1 69 1 is_stmt 0 view .LVU51
 242 0000 0020     		movs	r0, #0
 243              	.LVL18:
 244              		.loc 1 69 1 view .LVU52
 245 0002 7047     		bx	lr
 246              		.cfi_endproc
 247              	.LFE1377:
 249              		.section	.text._write,"ax",%progbits
 250              		.align	1
 251              		.weak	_write
 252              		.syntax unified
 253              		.thumb
 254              		.thumb_func
 256              	_write:
 257              	.LVL19:
ARM GAS  C:\Users\geoma\AppData\Local\Temp\ccvQ1Tua.s 			page 12


 258              	.LFB1378:
  70:flight/uvos/common/syscalls.c **** 
  71:flight/uvos/common/syscalls.c **** __attribute__( ( weak ) )
  72:flight/uvos/common/syscalls.c **** int _write( _UNUSED_( int file ), char * ptr, int len )
  73:flight/uvos/common/syscalls.c **** {
 259              		.loc 1 73 1 is_stmt 1 view -0
 260              		.cfi_startproc
 261              		@ args = 0, pretend = 0, frame = 0
 262              		@ frame_needed = 0, uses_anonymous_args = 0
 263              		@ link register save eliminated.
  74:flight/uvos/common/syscalls.c **** 	return 0;
 264              		.loc 1 74 2 view .LVU54
  75:flight/uvos/common/syscalls.c **** }
 265              		.loc 1 75 1 is_stmt 0 view .LVU55
 266 0000 0020     		movs	r0, #0
 267              	.LVL20:
 268              		.loc 1 75 1 view .LVU56
 269 0002 7047     		bx	lr
 270              		.cfi_endproc
 271              	.LFE1378:
 273              		.section	.text._exit,"ax",%progbits
 274              		.align	1
 275              		.weak	_exit
 276              		.syntax unified
 277              		.thumb
 278              		.thumb_func
 280              	_exit:
 281              	.LFB1379:
  76:flight/uvos/common/syscalls.c **** 
  77:flight/uvos/common/syscalls.c **** __attribute__( ( weak ) )
  78:flight/uvos/common/syscalls.c **** void _exit( _UNUSED_( int status ) )
  79:flight/uvos/common/syscalls.c **** {
 282              		.loc 1 79 1 is_stmt 1 view -0
 283              		.cfi_startproc
 284              		@ Volatile: function does not return.
 285              		@ args = 0, pretend = 0, frame = 0
 286              		@ frame_needed = 0, uses_anonymous_args = 0
 287              		@ link register save eliminated.
 288              	.LVL21:
 289              	.L17:
  80:flight/uvos/common/syscalls.c **** 	for ( ; ; ) ;
 290              		.loc 1 80 2 discriminator 1 view .LVU58
 291              		.loc 1 80 14 discriminator 1 view .LVU59
 292              		.loc 1 80 10 discriminator 1 view .LVU60
 293 0000 FEE7     		b	.L17
 294              		.cfi_endproc
 295              	.LFE1379:
 297              		.section	.text._kill,"ax",%progbits
 298              		.align	1
 299              		.weak	_kill
 300              		.syntax unified
 301              		.thumb
 302              		.thumb_func
 304              	_kill:
 305              	.LVL22:
 306              	.LFB1380:
  81:flight/uvos/common/syscalls.c **** }
ARM GAS  C:\Users\geoma\AppData\Local\Temp\ccvQ1Tua.s 			page 13


  82:flight/uvos/common/syscalls.c **** 
  83:flight/uvos/common/syscalls.c **** __attribute__( ( weak ) )
  84:flight/uvos/common/syscalls.c **** int _kill( _UNUSED_( int pid ), _UNUSED_( int sig ) )
  85:flight/uvos/common/syscalls.c **** {
 307              		.loc 1 85 1 view -0
 308              		.cfi_startproc
 309              		@ args = 0, pretend = 0, frame = 0
 310              		@ frame_needed = 0, uses_anonymous_args = 0
 311              		.loc 1 85 1 is_stmt 0 view .LVU62
 312 0000 08B5     		push	{r3, lr}
 313              	.LCFI1:
 314              		.cfi_def_cfa_offset 8
 315              		.cfi_offset 3, -8
 316              		.cfi_offset 14, -4
  86:flight/uvos/common/syscalls.c **** 	errno = EINVAL;
 317              		.loc 1 86 2 is_stmt 1 view .LVU63
 318 0002 FFF7FEFF 		bl	__errno
 319              	.LVL23:
 320              		.loc 1 86 8 is_stmt 0 view .LVU64
 321 0006 1623     		movs	r3, #22
 322 0008 0360     		str	r3, [r0]
  87:flight/uvos/common/syscalls.c **** 	return -1;
 323              		.loc 1 87 2 is_stmt 1 view .LVU65
  88:flight/uvos/common/syscalls.c **** }
 324              		.loc 1 88 1 is_stmt 0 view .LVU66
 325 000a 4FF0FF30 		mov	r0, #-1
 326 000e 08BD     		pop	{r3, pc}
 327              		.cfi_endproc
 328              	.LFE1380:
 330              		.section	.text._getpid,"ax",%progbits
 331              		.align	1
 332              		.weak	_getpid
 333              		.syntax unified
 334              		.thumb
 335              		.thumb_func
 337              	_getpid:
 338              	.LFB1381:
  89:flight/uvos/common/syscalls.c **** 
  90:flight/uvos/common/syscalls.c **** __attribute__( ( weak ) )
  91:flight/uvos/common/syscalls.c **** int _getpid( void )
  92:flight/uvos/common/syscalls.c **** {
 339              		.loc 1 92 1 is_stmt 1 view -0
 340              		.cfi_startproc
 341              		@ args = 0, pretend = 0, frame = 0
 342              		@ frame_needed = 0, uses_anonymous_args = 0
 343              		@ link register save eliminated.
  93:flight/uvos/common/syscalls.c **** 	return 1;
 344              		.loc 1 93 2 view .LVU68
  94:flight/uvos/common/syscalls.c **** }...
 345              		.loc 1 94 1 is_stmt 0 view .LVU69
 346 0000 0120     		movs	r0, #1
 347 0002 7047     		bx	lr
 348              		.cfi_endproc
 349              	.LFE1381:
 351              		.section	.data.heap_end.0,"aw"
 352              		.align	2
 353              		.set	.LANCHOR0,. + 0
ARM GAS  C:\Users\geoma\AppData\Local\Temp\ccvQ1Tua.s 			page 14


 356              	heap_end.0:
 357 0000 00000000 		.word	_end
 358              		.text
 359              	.Letext0:
 360              		.file 3 "c:\\program files (x86)\\gnu arm embedded toolchain\\10.3-2021.10\\arm-none-eabi\\include
 361              		.file 4 "c:\\program files (x86)\\gnu arm embedded toolchain\\10.3-2021.10\\arm-none-eabi\\include
 362              		.file 5 "c:\\program files (x86)\\gnu arm embedded toolchain\\10.3-2021.10\\arm-none-eabi\\include
 363              		.file 6 "c:\\program files (x86)\\gnu arm embedded toolchain\\10.3-2021.10\\arm-none-eabi\\include
 364              		.file 7 "c:\\program files (x86)\\gnu arm embedded toolchain\\10.3-2021.10\\arm-none-eabi\\include
 365              		.file 8 "c:\\program files (x86)\\gnu arm embedded toolchain\\10.3-2021.10\\arm-none-eabi\\include
 366              		.file 9 "./flight/uvos/stm32f4xx/libraries/STM32F4xx_HAL_Driver/Inc/stm32f4xx_ll_dma.h"
 367              		.file 10 "./flight/uvos/stm32f4xx/libraries/STM32F4xx_HAL_Driver/Inc/stm32f4xx_ll_tim.h"
 368              		.file 11 "c:\\program files (x86)\\gnu arm embedded toolchain\\10.3-2021.10\\arm-none-eabi\\includ
 369              		.file 12 "c:\\program files (x86)\\gnu arm embedded toolchain\\10.3-2021.10\\arm-none-eabi\\includ
ARM GAS  C:\Users\geoma\AppData\Local\Temp\ccvQ1Tua.s 			page 15

