ARM GAS  C:\Users\geoma\AppData\Local\Temp\ccd1Yrtr.s 			page 1


   1              		.cpu cortex-m4
   2              		.arch armv7e-m
   3              		.fpu fpv4-sp-d16
   4              		.eabi_attribute 27, 1
   5              		.eabi_attribute 28, 1
   6              		.eabi_attribute 20, 1
   7              		.eabi_attribute 21, 1
   8              		.eabi_attribute 23, 3
   9              		.eabi_attribute 24, 1
  10              		.eabi_attribute 25, 1
  11              		.eabi_attribute 26, 1
  12              		.eabi_attribute 30, 1
  13              		.eabi_attribute 34, 1
  14              		.eabi_attribute 18, 4
  15              		.file	"uvos_com.c"
  16              		.text
  17              	.Ltext0:
  18              		.cfi_sections	.debug_frame
  19              		.section	.text.UVOS_COM_validate,"ax",%progbits
  20              		.align	1
  21              		.syntax unified
  22              		.thumb
  23              		.thumb_func
  25              	UVOS_COM_validate:
  26              	.LVL0:
  27              	.LFB1372:
  28              		.file 1 "flight/uvos/common/uvos_com.c"
   1:flight/uvos/common/uvos_com.c **** #include "uvos.h"
   2:flight/uvos/common/uvos_com.c **** 
   3:flight/uvos/common/uvos_com.c **** #ifdef UVOS_INCLUDE_COM
   4:flight/uvos/common/uvos_com.c **** 
   5:flight/uvos/common/uvos_com.c **** #include "fifo_buffer.h"
   6:flight/uvos/common/uvos_com.c **** #include <uvos_com_priv.h>
   7:flight/uvos/common/uvos_com.c **** 
   8:flight/uvos/common/uvos_com.c **** #ifndef UVOS_INCLUDE_FREERTOS
   9:flight/uvos/common/uvos_com.c **** #include "uvos_delay.h" /* UVOS_DELAY_WaitmS */
  10:flight/uvos/common/uvos_com.c **** #endif
  11:flight/uvos/common/uvos_com.c **** 
  12:flight/uvos/common/uvos_com.c **** enum uvos_com_dev_magic {
  13:flight/uvos/common/uvos_com.c ****   UVOS_COM_DEV_MAGIC = 0xaa55aa55,
  14:flight/uvos/common/uvos_com.c **** };
  15:flight/uvos/common/uvos_com.c **** 
  16:flight/uvos/common/uvos_com.c **** struct uvos_com_dev {
  17:flight/uvos/common/uvos_com.c ****   enum uvos_com_dev_magic magic;
  18:flight/uvos/common/uvos_com.c ****   uint32_t lower_id;
  19:flight/uvos/common/uvos_com.c ****   const struct uvos_com_driver * driver;
  20:flight/uvos/common/uvos_com.c **** 
  21:flight/uvos/common/uvos_com.c **** #if defined(UVOS_INCLUDE_FREERTOS)
  22:flight/uvos/common/uvos_com.c ****   xSemaphoreHandle tx_sem;
  23:flight/uvos/common/uvos_com.c ****   xSemaphoreHandle rx_sem;
  24:flight/uvos/common/uvos_com.c ****   xSemaphoreHandle sendbuffer_sem;
  25:flight/uvos/common/uvos_com.c **** #endif
  26:flight/uvos/common/uvos_com.c **** 
  27:flight/uvos/common/uvos_com.c ****   bool has_rx;
  28:flight/uvos/common/uvos_com.c ****   bool has_tx;
  29:flight/uvos/common/uvos_com.c **** 
  30:flight/uvos/common/uvos_com.c ****   t_fifo_buffer rx;
ARM GAS  C:\Users\geoma\AppData\Local\Temp\ccd1Yrtr.s 			page 2


  31:flight/uvos/common/uvos_com.c ****   t_fifo_buffer tx;
  32:flight/uvos/common/uvos_com.c **** };
  33:flight/uvos/common/uvos_com.c **** 
  34:flight/uvos/common/uvos_com.c **** static bool UVOS_COM_validate( struct uvos_com_dev * com_dev )
  35:flight/uvos/common/uvos_com.c **** {
  29              		.loc 1 35 1 view -0
  30              		.cfi_startproc
  31              		@ args = 0, pretend = 0, frame = 0
  32              		@ frame_needed = 0, uses_anonymous_args = 0
  33              		@ link register save eliminated.
  36:flight/uvos/common/uvos_com.c ****   return com_dev && ( com_dev->magic == UVOS_COM_DEV_MAGIC );
  34              		.loc 1 36 3 view .LVU1
  35              		.loc 1 36 18 is_stmt 0 view .LVU2
  36 0000 28B1     		cbz	r0, .L3
  37              		.loc 1 36 30 discriminator 1 view .LVU3
  38 0002 0268     		ldr	r2, [r0]
  39              		.loc 1 36 18 discriminator 1 view .LVU4
  40 0004 044B     		ldr	r3, .L5
  41 0006 9A42     		cmp	r2, r3
  42 0008 03D0     		beq	.L4
  43              		.loc 1 36 18 view .LVU5
  44 000a 0020     		movs	r0, #0
  45              	.LVL1:
  46              		.loc 1 36 18 view .LVU6
  47 000c 7047     		bx	lr
  48              	.LVL2:
  49              	.L3:
  50              		.loc 1 36 18 view .LVU7
  51 000e 0020     		movs	r0, #0
  52              	.LVL3:
  53              		.loc 1 36 18 view .LVU8
  54 0010 7047     		bx	lr
  55              	.LVL4:
  56              	.L4:
  57              		.loc 1 36 18 view .LVU9
  58 0012 0120     		movs	r0, #1
  59              	.LVL5:
  37:flight/uvos/common/uvos_com.c **** }
  60              		.loc 1 37 1 view .LVU10
  61 0014 7047     		bx	lr
  62              	.L6:
  63 0016 00BF     		.align	2
  64              	.L5:
  65 0018 55AA55AA 		.word	-1437226411
  66              		.cfi_endproc
  67              	.LFE1372:
  69              		.section	.text.UVOS_COM_UnblockRx,"ax",%progbits
  70              		.align	1
  71              		.syntax unified
  72              		.thumb
  73              		.thumb_func
  75              	UVOS_COM_UnblockRx:
  76              	.LVL6:
  77              	.LFB1375:
  38:flight/uvos/common/uvos_com.c **** 
  39:flight/uvos/common/uvos_com.c **** #if defined(UVOS_INCLUDE_FREERTOS)
  40:flight/uvos/common/uvos_com.c **** static struct uvos_com_dev * UVOS_COM_alloc( void )
ARM GAS  C:\Users\geoma\AppData\Local\Temp\ccd1Yrtr.s 			page 3


  41:flight/uvos/common/uvos_com.c **** {
  42:flight/uvos/common/uvos_com.c ****   struct uvos_com_dev * com_dev;
  43:flight/uvos/common/uvos_com.c **** 
  44:flight/uvos/common/uvos_com.c ****   com_dev = ( struct uvos_com_dev * )UVOS_malloc( sizeof( struct uvos_com_dev ) );
  45:flight/uvos/common/uvos_com.c ****   if ( !com_dev ) {
  46:flight/uvos/common/uvos_com.c ****     return NULL;
  47:flight/uvos/common/uvos_com.c ****   }
  48:flight/uvos/common/uvos_com.c **** 
  49:flight/uvos/common/uvos_com.c ****   memset( com_dev, 0, sizeof( struct uvos_com_dev ) );
  50:flight/uvos/common/uvos_com.c ****   com_dev->magic = UVOS_COM_DEV_MAGIC;
  51:flight/uvos/common/uvos_com.c ****   return com_dev;
  52:flight/uvos/common/uvos_com.c **** }
  53:flight/uvos/common/uvos_com.c **** #else
  54:flight/uvos/common/uvos_com.c **** static struct uvos_com_dev uvos_com_devs[UVOS_COM_MAX_DEVS];
  55:flight/uvos/common/uvos_com.c **** static uint8_t uvos_com_num_devs;
  56:flight/uvos/common/uvos_com.c **** static struct uvos_com_dev * UVOS_COM_alloc( void )
  57:flight/uvos/common/uvos_com.c **** {
  58:flight/uvos/common/uvos_com.c ****   struct uvos_com_dev * com_dev;
  59:flight/uvos/common/uvos_com.c **** 
  60:flight/uvos/common/uvos_com.c ****   if ( uvos_com_num_devs >= UVOS_COM_MAX_DEVS ) {
  61:flight/uvos/common/uvos_com.c ****     return NULL;
  62:flight/uvos/common/uvos_com.c ****   }
  63:flight/uvos/common/uvos_com.c **** 
  64:flight/uvos/common/uvos_com.c ****   com_dev = &uvos_com_devs[uvos_com_num_devs++];
  65:flight/uvos/common/uvos_com.c **** 
  66:flight/uvos/common/uvos_com.c ****   memset( com_dev, 0, sizeof( struct uvos_com_dev ) );
  67:flight/uvos/common/uvos_com.c ****   com_dev->magic = UVOS_COM_DEV_MAGIC;
  68:flight/uvos/common/uvos_com.c **** 
  69:flight/uvos/common/uvos_com.c ****   return com_dev;
  70:flight/uvos/common/uvos_com.c **** }
  71:flight/uvos/common/uvos_com.c **** #endif /* if defined(UVOS_INCLUDE_FREERTOS) */
  72:flight/uvos/common/uvos_com.c **** 
  73:flight/uvos/common/uvos_com.c **** static uint16_t UVOS_COM_TxOutCallback( uint32_t context, uint8_t * buf, uint16_t buf_len, uint16_t
  74:flight/uvos/common/uvos_com.c **** static uint16_t UVOS_COM_RxInCallback( uint32_t context, uint8_t * buf, uint16_t buf_len, uint16_t 
  75:flight/uvos/common/uvos_com.c **** static void UVOS_COM_UnblockRx( struct uvos_com_dev * com_dev, bool * need_yield );
  76:flight/uvos/common/uvos_com.c **** static void UVOS_COM_UnblockTx( struct uvos_com_dev * com_dev, bool * need_yield );
  77:flight/uvos/common/uvos_com.c **** 
  78:flight/uvos/common/uvos_com.c **** /**
  79:flight/uvos/common/uvos_com.c ****  * Initialises COM layer
  80:flight/uvos/common/uvos_com.c ****  * \param[out] handle
  81:flight/uvos/common/uvos_com.c ****  * \param[in] driver
  82:flight/uvos/common/uvos_com.c ****  * \param[in] id
  83:flight/uvos/common/uvos_com.c ****  * \return < 0 if initialisation failed
  84:flight/uvos/common/uvos_com.c ****  */
  85:flight/uvos/common/uvos_com.c **** int32_t UVOS_COM_Init( uint32_t * com_id, const struct uvos_com_driver * driver, uint32_t lower_id,
  86:flight/uvos/common/uvos_com.c **** {
  87:flight/uvos/common/uvos_com.c ****   UVOS_Assert( com_id );
  88:flight/uvos/common/uvos_com.c ****   UVOS_Assert( driver );
  89:flight/uvos/common/uvos_com.c **** 
  90:flight/uvos/common/uvos_com.c ****   bool has_rx = ( rx_buffer && rx_buffer_len > 0 );
  91:flight/uvos/common/uvos_com.c ****   bool has_tx = ( tx_buffer && tx_buffer_len > 0 );
  92:flight/uvos/common/uvos_com.c ****   UVOS_Assert( has_rx || has_tx );
  93:flight/uvos/common/uvos_com.c ****   UVOS_Assert( driver->bind_tx_cb || !has_tx );
  94:flight/uvos/common/uvos_com.c ****   UVOS_Assert( driver->bind_rx_cb || !has_rx );
  95:flight/uvos/common/uvos_com.c **** 
  96:flight/uvos/common/uvos_com.c ****   struct uvos_com_dev * com_dev;
  97:flight/uvos/common/uvos_com.c **** 
ARM GAS  C:\Users\geoma\AppData\Local\Temp\ccd1Yrtr.s 			page 4


  98:flight/uvos/common/uvos_com.c ****   com_dev = ( struct uvos_com_dev * )UVOS_COM_alloc();
  99:flight/uvos/common/uvos_com.c ****   if ( !com_dev ) {
 100:flight/uvos/common/uvos_com.c ****     goto out_fail;
 101:flight/uvos/common/uvos_com.c ****   }
 102:flight/uvos/common/uvos_com.c **** 
 103:flight/uvos/common/uvos_com.c ****   com_dev->driver   = driver;
 104:flight/uvos/common/uvos_com.c ****   com_dev->lower_id = lower_id;
 105:flight/uvos/common/uvos_com.c **** 
 106:flight/uvos/common/uvos_com.c ****   com_dev->has_rx   = has_rx;
 107:flight/uvos/common/uvos_com.c ****   com_dev->has_tx   = has_tx;
 108:flight/uvos/common/uvos_com.c **** 
 109:flight/uvos/common/uvos_com.c ****   if ( has_rx ) {
 110:flight/uvos/common/uvos_com.c ****     fifoBuf_init( &com_dev->rx, rx_buffer, rx_buffer_len );
 111:flight/uvos/common/uvos_com.c **** #if defined(UVOS_INCLUDE_FREERTOS)
 112:flight/uvos/common/uvos_com.c ****     vSemaphoreCreateBinary( com_dev->rx_sem );
 113:flight/uvos/common/uvos_com.c **** #endif /* UVOS_INCLUDE_FREERTOS */
 114:flight/uvos/common/uvos_com.c ****     ( com_dev->driver->bind_rx_cb )( lower_id, UVOS_COM_RxInCallback, ( uint32_t )com_dev );
 115:flight/uvos/common/uvos_com.c ****     if ( com_dev->driver->rx_start ) {
 116:flight/uvos/common/uvos_com.c ****       /* Start the receiver */
 117:flight/uvos/common/uvos_com.c ****       ( com_dev->driver->rx_start )( com_dev->lower_id,
 118:flight/uvos/common/uvos_com.c ****                                      fifoBuf_getFree( &com_dev->rx ) );
 119:flight/uvos/common/uvos_com.c ****     }
 120:flight/uvos/common/uvos_com.c ****   }
 121:flight/uvos/common/uvos_com.c **** 
 122:flight/uvos/common/uvos_com.c ****   if ( has_tx ) {
 123:flight/uvos/common/uvos_com.c ****     fifoBuf_init( &com_dev->tx, tx_buffer, tx_buffer_len );
 124:flight/uvos/common/uvos_com.c **** #if defined(UVOS_INCLUDE_FREERTOS)
 125:flight/uvos/common/uvos_com.c ****     vSemaphoreCreateBinary( com_dev->tx_sem );
 126:flight/uvos/common/uvos_com.c **** #endif /* UVOS_INCLUDE_FREERTOS */
 127:flight/uvos/common/uvos_com.c ****     ( com_dev->driver->bind_tx_cb )( lower_id, UVOS_COM_TxOutCallback, ( uint32_t )com_dev );
 128:flight/uvos/common/uvos_com.c ****   }
 129:flight/uvos/common/uvos_com.c **** #if defined(UVOS_INCLUDE_FREERTOS)
 130:flight/uvos/common/uvos_com.c ****   com_dev->sendbuffer_sem = xSemaphoreCreateMutex();
 131:flight/uvos/common/uvos_com.c **** #endif /* UVOS_INCLUDE_FREERTOS */
 132:flight/uvos/common/uvos_com.c **** 
 133:flight/uvos/common/uvos_com.c ****   *com_id = ( uint32_t )com_dev;
 134:flight/uvos/common/uvos_com.c ****   return 0;
 135:flight/uvos/common/uvos_com.c **** 
 136:flight/uvos/common/uvos_com.c **** out_fail:
 137:flight/uvos/common/uvos_com.c ****   return -1;
 138:flight/uvos/common/uvos_com.c **** }
 139:flight/uvos/common/uvos_com.c **** 
 140:flight/uvos/common/uvos_com.c **** #if defined(UVOS_INCLUDE_FREERTOS)
 141:flight/uvos/common/uvos_com.c **** static void UVOS_COM_UnblockRx( struct uvos_com_dev * com_dev, bool * need_yield )
 142:flight/uvos/common/uvos_com.c **** {
 143:flight/uvos/common/uvos_com.c ****   static signed portBASE_TYPE xHigherPriorityTaskWoken = pdFALSE;
 144:flight/uvos/common/uvos_com.c **** 
 145:flight/uvos/common/uvos_com.c ****   xSemaphoreGiveFromISR( com_dev->rx_sem, &xHigherPriorityTaskWoken );
 146:flight/uvos/common/uvos_com.c **** 
 147:flight/uvos/common/uvos_com.c ****   if ( xHigherPriorityTaskWoken != pdFALSE ) {
 148:flight/uvos/common/uvos_com.c ****     *need_yield = true;
 149:flight/uvos/common/uvos_com.c ****   } else {
 150:flight/uvos/common/uvos_com.c ****     *need_yield = false;
 151:flight/uvos/common/uvos_com.c ****   }
 152:flight/uvos/common/uvos_com.c **** }
 153:flight/uvos/common/uvos_com.c **** #else
 154:flight/uvos/common/uvos_com.c **** static void UVOS_COM_UnblockRx( __attribute__( ( unused ) ) struct uvos_com_dev * com_dev, bool * n
ARM GAS  C:\Users\geoma\AppData\Local\Temp\ccd1Yrtr.s 			page 5


 155:flight/uvos/common/uvos_com.c **** {
  78              		.loc 1 155 1 is_stmt 1 view -0
  79              		.cfi_startproc
  80              		@ args = 0, pretend = 0, frame = 0
  81              		@ frame_needed = 0, uses_anonymous_args = 0
  82              		@ link register save eliminated.
 156:flight/uvos/common/uvos_com.c ****   *need_yield = false;
  83              		.loc 1 156 3 view .LVU12
  84              		.loc 1 156 15 is_stmt 0 view .LVU13
  85 0000 0023     		movs	r3, #0
  86 0002 0B70     		strb	r3, [r1]
 157:flight/uvos/common/uvos_com.c **** }
  87              		.loc 1 157 1 view .LVU14
  88 0004 7047     		bx	lr
  89              		.cfi_endproc
  90              	.LFE1375:
  92              		.section	.text.UVOS_COM_UnblockTx,"ax",%progbits
  93              		.align	1
  94              		.syntax unified
  95              		.thumb
  96              		.thumb_func
  98              	UVOS_COM_UnblockTx:
  99              	.LVL7:
 100              	.LFB1376:
 158:flight/uvos/common/uvos_com.c **** #endif
 159:flight/uvos/common/uvos_com.c **** 
 160:flight/uvos/common/uvos_com.c **** #if defined(UVOS_INCLUDE_FREERTOS)
 161:flight/uvos/common/uvos_com.c **** static void UVOS_COM_UnblockTx( struct uvos_com_dev * com_dev, bool * need_yield )
 162:flight/uvos/common/uvos_com.c **** {
 163:flight/uvos/common/uvos_com.c ****   static signed portBASE_TYPE xHigherPriorityTaskWoken = pdFALSE;
 164:flight/uvos/common/uvos_com.c **** 
 165:flight/uvos/common/uvos_com.c ****   xSemaphoreGiveFromISR( com_dev->tx_sem, &xHigherPriorityTaskWoken );
 166:flight/uvos/common/uvos_com.c **** 
 167:flight/uvos/common/uvos_com.c ****   if ( xHigherPriorityTaskWoken != pdFALSE ) {
 168:flight/uvos/common/uvos_com.c ****     *need_yield = true;
 169:flight/uvos/common/uvos_com.c ****   } else {
 170:flight/uvos/common/uvos_com.c ****     *need_yield = false;
 171:flight/uvos/common/uvos_com.c ****   }
 172:flight/uvos/common/uvos_com.c **** }
 173:flight/uvos/common/uvos_com.c **** #else
 174:flight/uvos/common/uvos_com.c **** static void UVOS_COM_UnblockTx( __attribute__( ( unused ) ) struct uvos_com_dev * com_dev, bool * n
 175:flight/uvos/common/uvos_com.c **** {
 101              		.loc 1 175 1 is_stmt 1 view -0
 102              		.cfi_startproc
 103              		@ args = 0, pretend = 0, frame = 0
 104              		@ frame_needed = 0, uses_anonymous_args = 0
 105              		@ link register save eliminated.
 176:flight/uvos/common/uvos_com.c ****   *need_yield = false;
 106              		.loc 1 176 3 view .LVU16
 107              		.loc 1 176 15 is_stmt 0 view .LVU17
 108 0000 0023     		movs	r3, #0
 109 0002 0B70     		strb	r3, [r1]
 177:flight/uvos/common/uvos_com.c **** }
 110              		.loc 1 177 1 view .LVU18
 111 0004 7047     		bx	lr
 112              		.cfi_endproc
 113              	.LFE1376:
ARM GAS  C:\Users\geoma\AppData\Local\Temp\ccd1Yrtr.s 			page 6


 115              		.section	.text.UVOS_COM_TxOutCallback,"ax",%progbits
 116              		.align	1
 117              		.syntax unified
 118              		.thumb
 119              		.thumb_func
 121              	UVOS_COM_TxOutCallback:
 122              	.LVL8:
 123              	.LFB1378:
 178:flight/uvos/common/uvos_com.c **** #endif
 179:flight/uvos/common/uvos_com.c **** 
 180:flight/uvos/common/uvos_com.c **** 
 181:flight/uvos/common/uvos_com.c **** static uint16_t UVOS_COM_RxInCallback( uint32_t context, uint8_t * buf, uint16_t buf_len, uint16_t 
 182:flight/uvos/common/uvos_com.c **** {
 183:flight/uvos/common/uvos_com.c ****   struct uvos_com_dev * com_dev = ( struct uvos_com_dev * )context;
 184:flight/uvos/common/uvos_com.c **** 
 185:flight/uvos/common/uvos_com.c ****   bool valid = UVOS_COM_validate( com_dev );
 186:flight/uvos/common/uvos_com.c **** 
 187:flight/uvos/common/uvos_com.c ****   UVOS_Assert( valid );
 188:flight/uvos/common/uvos_com.c ****   UVOS_Assert( com_dev->has_rx );
 189:flight/uvos/common/uvos_com.c ****   uint16_t bytes_into_fifo;
 190:flight/uvos/common/uvos_com.c ****   if ( buf_len == 1 ) {
 191:flight/uvos/common/uvos_com.c ****     bytes_into_fifo = fifoBuf_putByte( &com_dev->rx, buf[0] );
 192:flight/uvos/common/uvos_com.c ****   } else {
 193:flight/uvos/common/uvos_com.c ****     bytes_into_fifo = fifoBuf_putData( &com_dev->rx, buf, buf_len );
 194:flight/uvos/common/uvos_com.c ****   }
 195:flight/uvos/common/uvos_com.c ****   if ( bytes_into_fifo > 0 ) {
 196:flight/uvos/common/uvos_com.c ****     /* Data has been added to the buffer */
 197:flight/uvos/common/uvos_com.c ****     UVOS_COM_UnblockRx( com_dev, need_yield );
 198:flight/uvos/common/uvos_com.c ****   }
 199:flight/uvos/common/uvos_com.c **** 
 200:flight/uvos/common/uvos_com.c ****   if ( headroom ) {
 201:flight/uvos/common/uvos_com.c ****     *headroom = fifoBuf_getFree( &com_dev->rx );
 202:flight/uvos/common/uvos_com.c ****   }
 203:flight/uvos/common/uvos_com.c **** 
 204:flight/uvos/common/uvos_com.c ****   return bytes_into_fifo;
 205:flight/uvos/common/uvos_com.c **** }
 206:flight/uvos/common/uvos_com.c **** 
 207:flight/uvos/common/uvos_com.c **** static uint16_t UVOS_COM_TxOutCallback( uint32_t context, uint8_t * buf, uint16_t buf_len, uint16_t
 208:flight/uvos/common/uvos_com.c **** {
 124              		.loc 1 208 1 is_stmt 1 view -0
 125              		.cfi_startproc
 126              		@ args = 4, pretend = 0, frame = 0
 127              		@ frame_needed = 0, uses_anonymous_args = 0
 128              		.loc 1 208 1 is_stmt 0 view .LVU20
 129 0000 2DE9F041 		push	{r4, r5, r6, r7, r8, lr}
 130              	.LCFI0:
 131              		.cfi_def_cfa_offset 24
 132              		.cfi_offset 4, -24
 133              		.cfi_offset 5, -20
 134              		.cfi_offset 6, -16
 135              		.cfi_offset 7, -12
 136              		.cfi_offset 8, -8
 137              		.cfi_offset 14, -4
 138 0004 0746     		mov	r7, r0
 139 0006 0E46     		mov	r6, r1
 140 0008 1446     		mov	r4, r2
 141 000a 1D46     		mov	r5, r3
ARM GAS  C:\Users\geoma\AppData\Local\Temp\ccd1Yrtr.s 			page 7


 209:flight/uvos/common/uvos_com.c ****   struct uvos_com_dev * com_dev = ( struct uvos_com_dev * )context;
 142              		.loc 1 209 3 is_stmt 1 view .LVU21
 143              	.LVL9:
 210:flight/uvos/common/uvos_com.c **** 
 211:flight/uvos/common/uvos_com.c ****   bool valid = UVOS_COM_validate( com_dev );
 144              		.loc 1 211 3 view .LVU22
 145              		.loc 1 211 16 is_stmt 0 view .LVU23
 146 000c FFF7FEFF 		bl	UVOS_COM_validate
 147              	.LVL10:
 212:flight/uvos/common/uvos_com.c **** 
 213:flight/uvos/common/uvos_com.c ****   UVOS_Assert( valid );
 148              		.loc 1 213 3 is_stmt 1 view .LVU24
 149 0010 00B9     		cbnz	r0, .L10
 150              	.L11:
 151              		.loc 1 213 3 discriminator 1 view .LVU25
 152              		.loc 1 213 3 discriminator 1 view .LVU26
 153              		.loc 1 213 3 discriminator 1 view .LVU27
 154 0012 FEE7     		b	.L11
 155              	.L10:
 156              		.loc 1 213 23 discriminator 2 view .LVU28
 214:flight/uvos/common/uvos_com.c ****   UVOS_Assert( buf );
 157              		.loc 1 214 3 discriminator 2 view .LVU29
 158 0014 0EB1     		cbz	r6, .L13
 159              		.loc 1 214 21 discriminator 2 view .LVU30
 215:flight/uvos/common/uvos_com.c ****   UVOS_Assert( buf_len );
 160              		.loc 1 215 3 discriminator 2 view .LVU31
 161 0016 0CB9     		cbnz	r4, .L14
 162              	.L15:
 163              		.loc 1 215 3 discriminator 3 view .LVU32
 164              		.loc 1 215 3 discriminator 3 view .LVU33
 165              		.loc 1 215 3 discriminator 3 view .LVU34
 166 0018 FEE7     		b	.L15
 167              	.L13:
 214:flight/uvos/common/uvos_com.c ****   UVOS_Assert( buf );
 168              		.loc 1 214 3 discriminator 2 view .LVU35
 214:flight/uvos/common/uvos_com.c ****   UVOS_Assert( buf );
 169              		.loc 1 214 3 discriminator 2 view .LVU36
 214:flight/uvos/common/uvos_com.c ****   UVOS_Assert( buf );
 170              		.loc 1 214 3 discriminator 2 view .LVU37
 171 001a FEE7     		b	.L13
 172              	.L14:
 173              		.loc 1 215 25 discriminator 2 view .LVU38
 216:flight/uvos/common/uvos_com.c ****   UVOS_Assert( com_dev->has_tx );
 174              		.loc 1 216 3 discriminator 2 view .LVU39
 175 001c 7B7B     		ldrb	r3, [r7, #13]	@ zero_extendqisi2
 176 001e 03B9     		cbnz	r3, .L16
 177              	.L17:
 178              		.loc 1 216 3 discriminator 4 view .LVU40
 179              		.loc 1 216 3 discriminator 4 view .LVU41
 180              		.loc 1 216 3 discriminator 4 view .LVU42
 181 0020 FEE7     		b	.L17
 182              	.L16:
 183              		.loc 1 216 33 discriminator 2 view .LVU43
 217:flight/uvos/common/uvos_com.c **** 
 218:flight/uvos/common/uvos_com.c ****   uint16_t bytes_from_fifo = fifoBuf_getData( &com_dev->tx, buf, buf_len );
 184              		.loc 1 218 3 discriminator 2 view .LVU44
 185              		.loc 1 218 30 is_stmt 0 discriminator 2 view .LVU45
ARM GAS  C:\Users\geoma\AppData\Local\Temp\ccd1Yrtr.s 			page 8


 186 0022 07F11C08 		add	r8, r7, #28
 187 0026 2246     		mov	r2, r4
 188 0028 3146     		mov	r1, r6
 189 002a 4046     		mov	r0, r8
 190              	.LVL11:
 191              		.loc 1 218 30 discriminator 2 view .LVU46
 192 002c FFF7FEFF 		bl	fifoBuf_getData
 193              	.LVL12:
 219:flight/uvos/common/uvos_com.c **** 
 220:flight/uvos/common/uvos_com.c ****   if ( bytes_from_fifo > 0 ) {
 194              		.loc 1 220 3 is_stmt 1 discriminator 2 view .LVU47
 195              		.loc 1 220 6 is_stmt 0 discriminator 2 view .LVU48
 196 0030 0446     		mov	r4, r0
 197 0032 38B9     		cbnz	r0, .L21
 198              	.LVL13:
 199              	.L18:
 221:flight/uvos/common/uvos_com.c ****     /* More space has been made in the buffer */
 222:flight/uvos/common/uvos_com.c ****     UVOS_COM_UnblockTx( com_dev, need_yield );
 223:flight/uvos/common/uvos_com.c ****   }
 224:flight/uvos/common/uvos_com.c **** 
 225:flight/uvos/common/uvos_com.c ****   if ( headroom ) {
 200              		.loc 1 225 3 is_stmt 1 view .LVU49
 201              		.loc 1 225 6 is_stmt 0 view .LVU50
 202 0034 1DB1     		cbz	r5, .L19
 226:flight/uvos/common/uvos_com.c ****     *headroom = fifoBuf_getUsed( &com_dev->tx );
 203              		.loc 1 226 5 is_stmt 1 view .LVU51
 204              		.loc 1 226 17 is_stmt 0 view .LVU52
 205 0036 4046     		mov	r0, r8
 206 0038 FFF7FEFF 		bl	fifoBuf_getUsed
 207              	.LVL14:
 208              		.loc 1 226 15 view .LVU53
 209 003c 2880     		strh	r0, [r5]	@ movhi
 210              	.L19:
 227:flight/uvos/common/uvos_com.c ****   }
 228:flight/uvos/common/uvos_com.c **** 
 229:flight/uvos/common/uvos_com.c ****   return bytes_from_fifo;
 211              		.loc 1 229 3 is_stmt 1 view .LVU54
 230:flight/uvos/common/uvos_com.c **** }
 212              		.loc 1 230 1 is_stmt 0 view .LVU55
 213 003e 2046     		mov	r0, r4
 214 0040 BDE8F081 		pop	{r4, r5, r6, r7, r8, pc}
 215              	.LVL15:
 216              	.L21:
 222:flight/uvos/common/uvos_com.c ****   }
 217              		.loc 1 222 5 is_stmt 1 view .LVU56
 218 0044 0699     		ldr	r1, [sp, #24]
 219 0046 3846     		mov	r0, r7
 220              	.LVL16:
 222:flight/uvos/common/uvos_com.c ****   }
 221              		.loc 1 222 5 is_stmt 0 view .LVU57
 222 0048 FFF7FEFF 		bl	UVOS_COM_UnblockTx
 223              	.LVL17:
 224 004c F2E7     		b	.L18
 225              		.cfi_endproc
 226              	.LFE1378:
 228              		.section	.text.UVOS_COM_RxInCallback,"ax",%progbits
 229              		.align	1
ARM GAS  C:\Users\geoma\AppData\Local\Temp\ccd1Yrtr.s 			page 9


 230              		.syntax unified
 231              		.thumb
 232              		.thumb_func
 234              	UVOS_COM_RxInCallback:
 235              	.LVL18:
 236              	.LFB1377:
 182:flight/uvos/common/uvos_com.c ****   struct uvos_com_dev * com_dev = ( struct uvos_com_dev * )context;
 237              		.loc 1 182 1 is_stmt 1 view -0
 238              		.cfi_startproc
 239              		@ args = 4, pretend = 0, frame = 0
 240              		@ frame_needed = 0, uses_anonymous_args = 0
 182:flight/uvos/common/uvos_com.c ****   struct uvos_com_dev * com_dev = ( struct uvos_com_dev * )context;
 241              		.loc 1 182 1 is_stmt 0 view .LVU59
 242 0000 F8B5     		push	{r3, r4, r5, r6, r7, lr}
 243              	.LCFI1:
 244              		.cfi_def_cfa_offset 24
 245              		.cfi_offset 3, -24
 246              		.cfi_offset 4, -20
 247              		.cfi_offset 5, -16
 248              		.cfi_offset 6, -12
 249              		.cfi_offset 7, -8
 250              		.cfi_offset 14, -4
 251 0002 0746     		mov	r7, r0
 252 0004 0D46     		mov	r5, r1
 253 0006 1446     		mov	r4, r2
 254 0008 1E46     		mov	r6, r3
 183:flight/uvos/common/uvos_com.c **** 
 255              		.loc 1 183 3 is_stmt 1 view .LVU60
 256              	.LVL19:
 185:flight/uvos/common/uvos_com.c **** 
 257              		.loc 1 185 3 view .LVU61
 185:flight/uvos/common/uvos_com.c **** 
 258              		.loc 1 185 16 is_stmt 0 view .LVU62
 259 000a FFF7FEFF 		bl	UVOS_COM_validate
 260              	.LVL20:
 187:flight/uvos/common/uvos_com.c ****   UVOS_Assert( com_dev->has_rx );
 261              		.loc 1 187 3 is_stmt 1 view .LVU63
 262 000e 00B9     		cbnz	r0, .L23
 263              	.L24:
 187:flight/uvos/common/uvos_com.c ****   UVOS_Assert( com_dev->has_rx );
 264              		.loc 1 187 3 discriminator 1 view .LVU64
 187:flight/uvos/common/uvos_com.c ****   UVOS_Assert( com_dev->has_rx );
 265              		.loc 1 187 3 discriminator 1 view .LVU65
 187:flight/uvos/common/uvos_com.c ****   UVOS_Assert( com_dev->has_rx );
 266              		.loc 1 187 3 discriminator 1 view .LVU66
 267 0010 FEE7     		b	.L24
 268              	.L23:
 187:flight/uvos/common/uvos_com.c ****   UVOS_Assert( com_dev->has_rx );
 269              		.loc 1 187 23 discriminator 2 view .LVU67
 188:flight/uvos/common/uvos_com.c ****   uint16_t bytes_into_fifo;
 270              		.loc 1 188 3 discriminator 2 view .LVU68
 271 0012 3B7B     		ldrb	r3, [r7, #12]	@ zero_extendqisi2
 272 0014 03B9     		cbnz	r3, .L25
 273              	.L26:
 188:flight/uvos/common/uvos_com.c ****   uint16_t bytes_into_fifo;
 274              		.loc 1 188 3 discriminator 2 view .LVU69
 188:flight/uvos/common/uvos_com.c ****   uint16_t bytes_into_fifo;
ARM GAS  C:\Users\geoma\AppData\Local\Temp\ccd1Yrtr.s 			page 10


 275              		.loc 1 188 3 discriminator 2 view .LVU70
 188:flight/uvos/common/uvos_com.c ****   uint16_t bytes_into_fifo;
 276              		.loc 1 188 3 discriminator 2 view .LVU71
 277 0016 FEE7     		b	.L26
 278              	.L25:
 188:flight/uvos/common/uvos_com.c ****   uint16_t bytes_into_fifo;
 279              		.loc 1 188 33 discriminator 2 view .LVU72
 189:flight/uvos/common/uvos_com.c ****   if ( buf_len == 1 ) {
 280              		.loc 1 189 3 discriminator 2 view .LVU73
 190:flight/uvos/common/uvos_com.c ****     bytes_into_fifo = fifoBuf_putByte( &com_dev->rx, buf[0] );
 281              		.loc 1 190 3 discriminator 2 view .LVU74
 190:flight/uvos/common/uvos_com.c ****     bytes_into_fifo = fifoBuf_putByte( &com_dev->rx, buf[0] );
 282              		.loc 1 190 6 is_stmt 0 discriminator 2 view .LVU75
 283 0018 012C     		cmp	r4, #1
 284 001a 0FD0     		beq	.L32
 193:flight/uvos/common/uvos_com.c ****   }
 285              		.loc 1 193 5 is_stmt 1 view .LVU76
 193:flight/uvos/common/uvos_com.c ****   }
 286              		.loc 1 193 23 is_stmt 0 view .LVU77
 287 001c 2246     		mov	r2, r4
 288 001e 2946     		mov	r1, r5
 289 0020 07F11000 		add	r0, r7, #16
 290              	.LVL21:
 193:flight/uvos/common/uvos_com.c ****   }
 291              		.loc 1 193 23 view .LVU78
 292 0024 FFF7FEFF 		bl	fifoBuf_putData
 293              	.LVL22:
 294 0028 0446     		mov	r4, r0
 295              	.LVL23:
 296              	.L28:
 195:flight/uvos/common/uvos_com.c ****     /* Data has been added to the buffer */
 297              		.loc 1 195 3 is_stmt 1 view .LVU79
 195:flight/uvos/common/uvos_com.c ****     /* Data has been added to the buffer */
 298              		.loc 1 195 6 is_stmt 0 view .LVU80
 299 002a 74B9     		cbnz	r4, .L33
 300              	.L29:
 200:flight/uvos/common/uvos_com.c ****     *headroom = fifoBuf_getFree( &com_dev->rx );
 301              		.loc 1 200 3 is_stmt 1 view .LVU81
 200:flight/uvos/common/uvos_com.c ****     *headroom = fifoBuf_getFree( &com_dev->rx );
 302              		.loc 1 200 6 is_stmt 0 view .LVU82
 303 002c 26B1     		cbz	r6, .L30
 201:flight/uvos/common/uvos_com.c ****   }
 304              		.loc 1 201 5 is_stmt 1 view .LVU83
 201:flight/uvos/common/uvos_com.c ****   }
 305              		.loc 1 201 17 is_stmt 0 view .LVU84
 306 002e 07F11000 		add	r0, r7, #16
 307 0032 FFF7FEFF 		bl	fifoBuf_getFree
 308              	.LVL24:
 201:flight/uvos/common/uvos_com.c ****   }
 309              		.loc 1 201 15 view .LVU85
 310 0036 3080     		strh	r0, [r6]	@ movhi
 311              	.L30:
 204:flight/uvos/common/uvos_com.c **** }
 312              		.loc 1 204 3 is_stmt 1 view .LVU86
 205:flight/uvos/common/uvos_com.c **** 
 313              		.loc 1 205 1 is_stmt 0 view .LVU87
 314 0038 2046     		mov	r0, r4
ARM GAS  C:\Users\geoma\AppData\Local\Temp\ccd1Yrtr.s 			page 11


 315 003a F8BD     		pop	{r3, r4, r5, r6, r7, pc}
 316              	.LVL25:
 317              	.L32:
 191:flight/uvos/common/uvos_com.c ****   } else {
 318              		.loc 1 191 5 is_stmt 1 view .LVU88
 191:flight/uvos/common/uvos_com.c ****   } else {
 319              		.loc 1 191 23 is_stmt 0 view .LVU89
 320 003c 2978     		ldrb	r1, [r5]	@ zero_extendqisi2
 321 003e 07F11000 		add	r0, r7, #16
 322              	.LVL26:
 191:flight/uvos/common/uvos_com.c ****   } else {
 323              		.loc 1 191 23 view .LVU90
 324 0042 FFF7FEFF 		bl	fifoBuf_putByte
 325              	.LVL27:
 326 0046 0446     		mov	r4, r0
 327              	.LVL28:
 191:flight/uvos/common/uvos_com.c ****   } else {
 328              		.loc 1 191 23 view .LVU91
 329 0048 EFE7     		b	.L28
 330              	.L33:
 197:flight/uvos/common/uvos_com.c ****   }
 331              		.loc 1 197 5 is_stmt 1 view .LVU92
 332 004a 0699     		ldr	r1, [sp, #24]
 333 004c 3846     		mov	r0, r7
 334 004e FFF7FEFF 		bl	UVOS_COM_UnblockRx
 335              	.LVL29:
 336 0052 EBE7     		b	.L29
 337              		.cfi_endproc
 338              	.LFE1377:
 340              		.section	.text.UVOS_COM_alloc,"ax",%progbits
 341              		.align	1
 342              		.syntax unified
 343              		.thumb
 344              		.thumb_func
 346              	UVOS_COM_alloc:
 347              	.LFB1373:
  57:flight/uvos/common/uvos_com.c ****   struct uvos_com_dev * com_dev;
 348              		.loc 1 57 1 view -0
 349              		.cfi_startproc
 350              		@ args = 0, pretend = 0, frame = 0
 351              		@ frame_needed = 0, uses_anonymous_args = 0
 352 0000 F8B5     		push	{r3, r4, r5, r6, r7, lr}
 353              	.LCFI2:
 354              		.cfi_def_cfa_offset 24
 355              		.cfi_offset 3, -24
 356              		.cfi_offset 4, -20
 357              		.cfi_offset 5, -16
 358              		.cfi_offset 6, -12
 359              		.cfi_offset 7, -8
 360              		.cfi_offset 14, -4
  58:flight/uvos/common/uvos_com.c **** 
 361              		.loc 1 58 3 view .LVU94
  60:flight/uvos/common/uvos_com.c ****     return NULL;
 362              		.loc 1 60 3 view .LVU95
  60:flight/uvos/common/uvos_com.c ****     return NULL;
 363              		.loc 1 60 26 is_stmt 0 view .LVU96
 364 0002 0C4B     		ldr	r3, .L38
ARM GAS  C:\Users\geoma\AppData\Local\Temp\ccd1Yrtr.s 			page 12


 365 0004 1C78     		ldrb	r4, [r3]	@ zero_extendqisi2
  60:flight/uvos/common/uvos_com.c ****     return NULL;
 366              		.loc 1 60 6 view .LVU97
 367 0006 032C     		cmp	r4, #3
 368 0008 12D8     		bhi	.L36
  64:flight/uvos/common/uvos_com.c **** 
 369              		.loc 1 64 3 is_stmt 1 view .LVU98
  64:flight/uvos/common/uvos_com.c **** 
 370              		.loc 1 64 45 is_stmt 0 view .LVU99
 371 000a 621C     		adds	r2, r4, #1
 372 000c 1A70     		strb	r2, [r3]
  64:flight/uvos/common/uvos_com.c **** 
 373              		.loc 1 64 11 view .LVU100
 374 000e 0A4F     		ldr	r7, .L38+4
 375 0010 A600     		lsls	r6, r4, #2
 376 0012 04EB8403 		add	r3, r4, r4, lsl #2
 377 0016 DD00     		lsls	r5, r3, #3
 378 0018 3D44     		add	r5, r5, r7
 379              	.LVL30:
  66:flight/uvos/common/uvos_com.c ****   com_dev->magic = UVOS_COM_DEV_MAGIC;
 380              		.loc 1 66 3 is_stmt 1 view .LVU101
 381 001a 2822     		movs	r2, #40
 382 001c 0021     		movs	r1, #0
 383 001e 2846     		mov	r0, r5
 384 0020 FFF7FEFF 		bl	memset
 385              	.LVL31:
  67:flight/uvos/common/uvos_com.c **** 
 386              		.loc 1 67 3 view .LVU102
  67:flight/uvos/common/uvos_com.c **** 
 387              		.loc 1 67 18 is_stmt 0 view .LVU103
 388 0024 3444     		add	r4, r4, r6
 389 0026 E300     		lsls	r3, r4, #3
 390 0028 044A     		ldr	r2, .L38+8
 391 002a FA50     		str	r2, [r7, r3]
  69:flight/uvos/common/uvos_com.c **** }
 392              		.loc 1 69 3 is_stmt 1 view .LVU104
 393              	.LVL32:
 394              	.L34:
  70:flight/uvos/common/uvos_com.c **** #endif /* if defined(UVOS_INCLUDE_FREERTOS) */
 395              		.loc 1 70 1 is_stmt 0 view .LVU105
 396 002c 2846     		mov	r0, r5
 397 002e F8BD     		pop	{r3, r4, r5, r6, r7, pc}
 398              	.L36:
  61:flight/uvos/common/uvos_com.c ****   }
 399              		.loc 1 61 12 view .LVU106
 400 0030 0025     		movs	r5, #0
 401 0032 FBE7     		b	.L34
 402              	.L39:
 403              		.align	2
 404              	.L38:
 405 0034 00000000 		.word	.LANCHOR0
 406 0038 00000000 		.word	.LANCHOR1
 407 003c 55AA55AA 		.word	-1437226411
 408              		.cfi_endproc
 409              	.LFE1373:
 411              		.section	.text.UVOS_COM_SendBufferNonBlockingInternal,"ax",%progbits
 412              		.align	1
ARM GAS  C:\Users\geoma\AppData\Local\Temp\ccd1Yrtr.s 			page 13


 413              		.syntax unified
 414              		.thumb
 415              		.thumb_func
 417              	UVOS_COM_SendBufferNonBlockingInternal:
 418              	.LVL33:
 419              	.LFB1381:
 231:flight/uvos/common/uvos_com.c **** 
 232:flight/uvos/common/uvos_com.c **** /**
 233:flight/uvos/common/uvos_com.c ****  * Change the port speed without re-initializing
 234:flight/uvos/common/uvos_com.c ****  * \param[in] port COM port
 235:flight/uvos/common/uvos_com.c ****  * \param[in] baud Requested baud rate
 236:flight/uvos/common/uvos_com.c ****  * \return -1 if port not available
 237:flight/uvos/common/uvos_com.c ****  * \return 0 on success
 238:flight/uvos/common/uvos_com.c ****  */
 239:flight/uvos/common/uvos_com.c **** int32_t UVOS_COM_ChangeBaud( uint32_t com_id, uint32_t baud )
 240:flight/uvos/common/uvos_com.c **** {
 241:flight/uvos/common/uvos_com.c ****   struct uvos_com_dev * com_dev = ( struct uvos_com_dev * )com_id;
 242:flight/uvos/common/uvos_com.c **** 
 243:flight/uvos/common/uvos_com.c ****   if ( !UVOS_COM_validate( com_dev ) ) {
 244:flight/uvos/common/uvos_com.c ****     /* Undefined COM port for this board (see uvos_board.c) */
 245:flight/uvos/common/uvos_com.c ****     return -1;
 246:flight/uvos/common/uvos_com.c ****   }
 247:flight/uvos/common/uvos_com.c **** 
 248:flight/uvos/common/uvos_com.c ****   /* Invoke the driver function if it exists */
 249:flight/uvos/common/uvos_com.c ****   if ( com_dev->driver->set_baud ) {
 250:flight/uvos/common/uvos_com.c ****     com_dev->driver->set_baud( com_dev->lower_id, baud );
 251:flight/uvos/common/uvos_com.c ****   }
 252:flight/uvos/common/uvos_com.c **** 
 253:flight/uvos/common/uvos_com.c ****   return 0;
 254:flight/uvos/common/uvos_com.c **** }
 255:flight/uvos/common/uvos_com.c **** 
 256:flight/uvos/common/uvos_com.c **** /**
 257:flight/uvos/common/uvos_com.c ****  * Set baud rate callback associated with the port
 258:flight/uvos/common/uvos_com.c ****  * \param[in] port COM port
 259:flight/uvos/common/uvos_com.c ****  * \param[in] baud_rate_cb Callback function
 260:flight/uvos/common/uvos_com.c ****  * \param[in] context context to pass to the callback function
 261:flight/uvos/common/uvos_com.c ****  * \return -1 if port not available
 262:flight/uvos/common/uvos_com.c ****  * \return 0 on success
 263:flight/uvos/common/uvos_com.c ****  */
 264:flight/uvos/common/uvos_com.c **** int32_t UVOS_COM_RegisterBaudRateCallback( uint32_t com_id, uvos_com_callback_baud_rate baud_rate_c
 265:flight/uvos/common/uvos_com.c **** {
 266:flight/uvos/common/uvos_com.c ****   struct uvos_com_dev * com_dev = ( struct uvos_com_dev * )com_id;
 267:flight/uvos/common/uvos_com.c **** 
 268:flight/uvos/common/uvos_com.c ****   if ( !UVOS_COM_validate( com_dev ) ) {
 269:flight/uvos/common/uvos_com.c ****     /* Undefined COM port for this board (see uvos_board.c) */
 270:flight/uvos/common/uvos_com.c ****     return -1;
 271:flight/uvos/common/uvos_com.c ****   }
 272:flight/uvos/common/uvos_com.c **** 
 273:flight/uvos/common/uvos_com.c ****   /* Invoke the driver function if it exists */
 274:flight/uvos/common/uvos_com.c ****   if ( com_dev->driver->bind_baud_rate_cb ) {
 275:flight/uvos/common/uvos_com.c ****     com_dev->driver->bind_baud_rate_cb( com_dev->lower_id, baud_rate_cb, context );
 276:flight/uvos/common/uvos_com.c ****   }
 277:flight/uvos/common/uvos_com.c **** 
 278:flight/uvos/common/uvos_com.c ****   return 0;
 279:flight/uvos/common/uvos_com.c **** }
 280:flight/uvos/common/uvos_com.c **** 
 281:flight/uvos/common/uvos_com.c **** static int32_t UVOS_COM_SendBufferNonBlockingInternal( struct uvos_com_dev * com_dev, const uint8_t
ARM GAS  C:\Users\geoma\AppData\Local\Temp\ccd1Yrtr.s 			page 14


 282:flight/uvos/common/uvos_com.c **** {
 420              		.loc 1 282 1 is_stmt 1 view -0
 421              		.cfi_startproc
 422              		@ args = 0, pretend = 0, frame = 0
 423              		@ frame_needed = 0, uses_anonymous_args = 0
 283:flight/uvos/common/uvos_com.c ****   UVOS_Assert( com_dev );
 424              		.loc 1 283 3 view .LVU108
 425 0000 38B1     		cbz	r0, .L42
 282:flight/uvos/common/uvos_com.c ****   UVOS_Assert( com_dev );
 426              		.loc 1 282 1 is_stmt 0 discriminator 2 view .LVU109
 427 0002 2DE9F041 		push	{r4, r5, r6, r7, r8, lr}
 428              	.LCFI3:
 429              		.cfi_def_cfa_offset 24
 430              		.cfi_offset 4, -24
 431              		.cfi_offset 5, -20
 432              		.cfi_offset 6, -16
 433              		.cfi_offset 7, -12
 434              		.cfi_offset 8, -8
 435              		.cfi_offset 14, -4
 436 0006 0D46     		mov	r5, r1
 437 0008 1446     		mov	r4, r2
 438 000a 0646     		mov	r6, r0
 439              		.loc 1 283 25 is_stmt 1 discriminator 2 view .LVU110
 284:flight/uvos/common/uvos_com.c ****   UVOS_Assert( com_dev->has_tx );
 440              		.loc 1 284 3 discriminator 2 view .LVU111
 441 000c 437B     		ldrb	r3, [r0, #13]	@ zero_extendqisi2
 442 000e 0BB9     		cbnz	r3, .L43
 443              	.L44:
 444              		.loc 1 284 3 discriminator 2 view .LVU112
 445              		.loc 1 284 3 discriminator 2 view .LVU113
 446              		.loc 1 284 3 discriminator 2 view .LVU114
 447 0010 FEE7     		b	.L44
 448              	.L42:
 449              	.LCFI4:
 450              		.cfi_def_cfa_offset 0
 451              		.cfi_restore 4
 452              		.cfi_restore 5
 453              		.cfi_restore 6
 454              		.cfi_restore 7
 455              		.cfi_restore 8
 456              		.cfi_restore 14
 283:flight/uvos/common/uvos_com.c ****   UVOS_Assert( com_dev );
 457              		.loc 1 283 3 discriminator 1 view .LVU115
 283:flight/uvos/common/uvos_com.c ****   UVOS_Assert( com_dev );
 458              		.loc 1 283 3 discriminator 1 view .LVU116
 283:flight/uvos/common/uvos_com.c ****   UVOS_Assert( com_dev );
 459              		.loc 1 283 3 discriminator 1 view .LVU117
 460 0012 FEE7     		b	.L42
 461              	.L43:
 462              	.LCFI5:
 463              		.cfi_def_cfa_offset 24
 464              		.cfi_offset 4, -24
 465              		.cfi_offset 5, -20
 466              		.cfi_offset 6, -16
 467              		.cfi_offset 7, -12
 468              		.cfi_offset 8, -8
 469              		.cfi_offset 14, -4
ARM GAS  C:\Users\geoma\AppData\Local\Temp\ccd1Yrtr.s 			page 15


 470              		.loc 1 284 33 discriminator 2 view .LVU118
 285:flight/uvos/common/uvos_com.c ****   if ( com_dev->driver->available && !( com_dev->driver->available( com_dev->lower_id ) & COM_AVAIL
 471              		.loc 1 285 3 discriminator 2 view .LVU119
 472              		.loc 1 285 15 is_stmt 0 discriminator 2 view .LVU120
 473 0014 8368     		ldr	r3, [r0, #8]
 474              		.loc 1 285 23 discriminator 2 view .LVU121
 475 0016 9B69     		ldr	r3, [r3, #24]
 476              		.loc 1 285 6 discriminator 2 view .LVU122
 477 0018 23B1     		cbz	r3, .L45
 478              		.loc 1 285 41 discriminator 1 view .LVU123
 479 001a 4068     		ldr	r0, [r0, #4]
 480              	.LVL34:
 481              		.loc 1 285 41 discriminator 1 view .LVU124
 482 001c 9847     		blx	r3
 483              	.LVL35:
 484              		.loc 1 285 35 discriminator 1 view .LVU125
 485 001e 10F0020F 		tst	r0, #2
 486 0022 1AD0     		beq	.L51
 487              	.L45:
 286:flight/uvos/common/uvos_com.c ****     /*
 287:flight/uvos/common/uvos_com.c ****      * Underlying device is down/unconnected.
 288:flight/uvos/common/uvos_com.c ****      * Dump our fifo contents and act like an infinite data sink.
 289:flight/uvos/common/uvos_com.c ****      * Failure to do this results in stale data in the fifo as well as
 290:flight/uvos/common/uvos_com.c ****      * possibly having the caller block trying to send to a device that's
 291:flight/uvos/common/uvos_com.c ****      * no longer accepting data.
 292:flight/uvos/common/uvos_com.c ****      */
 293:flight/uvos/common/uvos_com.c ****     fifoBuf_clearData( &com_dev->tx );
 294:flight/uvos/common/uvos_com.c ****     return len;
 295:flight/uvos/common/uvos_com.c ****   }
 296:flight/uvos/common/uvos_com.c **** 
 297:flight/uvos/common/uvos_com.c ****   if ( len > fifoBuf_getFree( &com_dev->tx ) ) {
 488              		.loc 1 297 3 is_stmt 1 view .LVU126
 489              		.loc 1 297 14 is_stmt 0 view .LVU127
 490 0024 06F11C07 		add	r7, r6, #28
 491 0028 3846     		mov	r0, r7
 492 002a FFF7FEFF 		bl	fifoBuf_getFree
 493              	.LVL36:
 494              		.loc 1 297 6 view .LVU128
 495 002e A042     		cmp	r0, r4
 496 0030 19D3     		bcc	.L48
 298:flight/uvos/common/uvos_com.c ****     /* Buffer cannot accept all requested bytes (retry) */
 299:flight/uvos/common/uvos_com.c ****     return -2;
 300:flight/uvos/common/uvos_com.c ****   }
 301:flight/uvos/common/uvos_com.c **** 
 302:flight/uvos/common/uvos_com.c ****   uint16_t bytes_into_fifo = fifoBuf_putData( &com_dev->tx, buffer, len );
 497              		.loc 1 302 3 is_stmt 1 view .LVU129
 498              		.loc 1 302 30 is_stmt 0 view .LVU130
 499 0032 2246     		mov	r2, r4
 500 0034 2946     		mov	r1, r5
 501 0036 3846     		mov	r0, r7
 502 0038 FFF7FEFF 		bl	fifoBuf_putData
 503              	.LVL37:
 303:flight/uvos/common/uvos_com.c **** 
 304:flight/uvos/common/uvos_com.c ****   if ( bytes_into_fifo > 0 ) {
 504              		.loc 1 304 3 is_stmt 1 view .LVU131
 505              		.loc 1 304 6 is_stmt 0 view .LVU132
 506 003c 8046     		mov	r8, r0
ARM GAS  C:\Users\geoma\AppData\Local\Temp\ccd1Yrtr.s 			page 16


 507 003e 48B1     		cbz	r0, .L47
 305:flight/uvos/common/uvos_com.c ****     /* More data has been put in the tx buffer, make sure the tx is started */
 306:flight/uvos/common/uvos_com.c ****     if ( com_dev->driver->tx_start ) {
 508              		.loc 1 306 5 is_stmt 1 view .LVU133
 509              		.loc 1 306 17 is_stmt 0 view .LVU134
 510 0040 B368     		ldr	r3, [r6, #8]
 511              		.loc 1 306 25 view .LVU135
 512 0042 5C68     		ldr	r4, [r3, #4]
 513              		.loc 1 306 8 view .LVU136
 514 0044 34B1     		cbz	r4, .L47
 307:flight/uvos/common/uvos_com.c ****       com_dev->driver->tx_start( com_dev->lower_id,
 515              		.loc 1 307 7 is_stmt 1 view .LVU137
 516 0046 7568     		ldr	r5, [r6, #4]
 517              	.LVL38:
 518              		.loc 1 307 7 is_stmt 0 view .LVU138
 519 0048 3846     		mov	r0, r7
 520              	.LVL39:
 521              		.loc 1 307 7 view .LVU139
 522 004a FFF7FEFF 		bl	fifoBuf_getUsed
 523              	.LVL40:
 524 004e 0146     		mov	r1, r0
 525 0050 2846     		mov	r0, r5
 526 0052 A047     		blx	r4
 527              	.LVL41:
 528              	.L47:
 308:flight/uvos/common/uvos_com.c ****                                  fifoBuf_getUsed( &com_dev->tx ) );
 309:flight/uvos/common/uvos_com.c ****     }
 310:flight/uvos/common/uvos_com.c ****   }
 311:flight/uvos/common/uvos_com.c ****   return bytes_into_fifo;
 529              		.loc 1 311 3 is_stmt 1 view .LVU140
 530              		.loc 1 311 10 is_stmt 0 view .LVU141
 531 0054 4046     		mov	r0, r8
 532              	.L40:
 312:flight/uvos/common/uvos_com.c **** }
 533              		.loc 1 312 1 view .LVU142
 534 0056 BDE8F081 		pop	{r4, r5, r6, r7, r8, pc}
 535              	.LVL42:
 536              	.L51:
 293:flight/uvos/common/uvos_com.c ****     return len;
 537              		.loc 1 293 5 is_stmt 1 view .LVU143
 538 005a 06F11C00 		add	r0, r6, #28
 539 005e FFF7FEFF 		bl	fifoBuf_clearData
 540              	.LVL43:
 294:flight/uvos/common/uvos_com.c ****   }
 541              		.loc 1 294 5 view .LVU144
 294:flight/uvos/common/uvos_com.c ****   }
 542              		.loc 1 294 12 is_stmt 0 view .LVU145
 543 0062 2046     		mov	r0, r4
 544 0064 F7E7     		b	.L40
 545              	.L48:
 299:flight/uvos/common/uvos_com.c ****   }
 546              		.loc 1 299 12 view .LVU146
 547 0066 6FF00100 		mvn	r0, #1
 548 006a F4E7     		b	.L40
 549              		.cfi_endproc
 550              	.LFE1381:
 552              		.section	.text.UVOS_COM_Init,"ax",%progbits
ARM GAS  C:\Users\geoma\AppData\Local\Temp\ccd1Yrtr.s 			page 17


 553              		.align	1
 554              		.global	UVOS_COM_Init
 555              		.syntax unified
 556              		.thumb
 557              		.thumb_func
 559              	UVOS_COM_Init:
 560              	.LVL44:
 561              	.LFB1374:
  86:flight/uvos/common/uvos_com.c ****   UVOS_Assert( com_id );
 562              		.loc 1 86 1 is_stmt 1 view -0
 563              		.cfi_startproc
 564              		@ args = 12, pretend = 0, frame = 8
 565              		@ frame_needed = 0, uses_anonymous_args = 0
  86:flight/uvos/common/uvos_com.c ****   UVOS_Assert( com_id );
 566              		.loc 1 86 1 is_stmt 0 view .LVU148
 567 0000 2DE9F04F 		push	{r4, r5, r6, r7, r8, r9, r10, fp, lr}
 568              	.LCFI6:
 569              		.cfi_def_cfa_offset 36
 570              		.cfi_offset 4, -36
 571              		.cfi_offset 5, -32
 572              		.cfi_offset 6, -28
 573              		.cfi_offset 7, -24
 574              		.cfi_offset 8, -20
 575              		.cfi_offset 9, -16
 576              		.cfi_offset 10, -12
 577              		.cfi_offset 11, -8
 578              		.cfi_offset 14, -4
 579 0004 83B0     		sub	sp, sp, #12
 580              	.LCFI7:
 581              		.cfi_def_cfa_offset 48
 582 0006 BDF830B0 		ldrh	fp, [sp, #48]
 583 000a BDF838A0 		ldrh	r10, [sp, #56]
  87:flight/uvos/common/uvos_com.c ****   UVOS_Assert( driver );
 584              		.loc 1 87 3 is_stmt 1 view .LVU149
 585 000e 0190     		str	r0, [sp, #4]
 586 0010 A0B1     		cbz	r0, .L54
 587 0012 0C46     		mov	r4, r1
 588 0014 1646     		mov	r6, r2
 589 0016 1D46     		mov	r5, r3
  87:flight/uvos/common/uvos_com.c ****   UVOS_Assert( driver );
 590              		.loc 1 87 24 discriminator 2 view .LVU150
  88:flight/uvos/common/uvos_com.c **** 
 591              		.loc 1 88 3 discriminator 2 view .LVU151
 592 0018 89B1     		cbz	r1, .L56
  88:flight/uvos/common/uvos_com.c **** 
 593              		.loc 1 88 24 discriminator 2 view .LVU152
  90:flight/uvos/common/uvos_com.c ****   bool has_tx = ( tx_buffer && tx_buffer_len > 0 );
 594              		.loc 1 90 3 discriminator 2 view .LVU153
  90:flight/uvos/common/uvos_com.c ****   bool has_tx = ( tx_buffer && tx_buffer_len > 0 );
 595              		.loc 1 90 29 is_stmt 0 discriminator 2 view .LVU154
 596 001a 8BB1     		cbz	r3, .L68
  90:flight/uvos/common/uvos_com.c ****   bool has_tx = ( tx_buffer && tx_buffer_len > 0 );
 597              		.loc 1 90 29 discriminator 1 view .LVU155
 598 001c BBF1000F 		cmp	fp, #0
 599 0020 10D1     		bne	.L69
  90:flight/uvos/common/uvos_com.c ****   bool has_tx = ( tx_buffer && tx_buffer_len > 0 );
 600              		.loc 1 90 29 view .LVU156
ARM GAS  C:\Users\geoma\AppData\Local\Temp\ccd1Yrtr.s 			page 18


 601 0022 0027     		movs	r7, #0
 602              	.L57:
 603              	.LVL45:
  91:flight/uvos/common/uvos_com.c ****   UVOS_Assert( has_rx || has_tx );
 604              		.loc 1 91 3 is_stmt 1 discriminator 6 view .LVU157
  91:flight/uvos/common/uvos_com.c ****   UVOS_Assert( has_rx || has_tx );
 605              		.loc 1 91 29 is_stmt 0 discriminator 6 view .LVU158
 606 0024 0D9B     		ldr	r3, [sp, #52]
 607              	.LVL46:
  91:flight/uvos/common/uvos_com.c ****   UVOS_Assert( has_rx || has_tx );
 608              		.loc 1 91 29 discriminator 6 view .LVU159
 609 0026 7BB1     		cbz	r3, .L70
  91:flight/uvos/common/uvos_com.c ****   UVOS_Assert( has_rx || has_tx );
 610              		.loc 1 91 29 discriminator 1 view .LVU160
 611 0028 BAF1000F 		cmp	r10, #0
 612 002c 0FD1     		bne	.L71
  91:flight/uvos/common/uvos_com.c ****   UVOS_Assert( has_rx || has_tx );
 613              		.loc 1 91 29 view .LVU161
 614 002e 4FF00008 		mov	r8, #0
 615              	.L58:
 616              	.LVL47:
  92:flight/uvos/common/uvos_com.c ****   UVOS_Assert( driver->bind_tx_cb || !has_tx );
 617              		.loc 1 92 3 is_stmt 1 discriminator 6 view .LVU162
 618 0032 7FB9     		cbnz	r7, .L59
  92:flight/uvos/common/uvos_com.c ****   UVOS_Assert( driver->bind_tx_cb || !has_tx );
 619              		.loc 1 92 3 is_stmt 0 discriminator 1 view .LVU163
 620 0034 B8F1000F 		cmp	r8, #0
 621 0038 0CD1     		bne	.L59
 622              	.L60:
  92:flight/uvos/common/uvos_com.c ****   UVOS_Assert( driver->bind_tx_cb || !has_tx );
 623              		.loc 1 92 3 is_stmt 1 discriminator 3 view .LVU164
  92:flight/uvos/common/uvos_com.c ****   UVOS_Assert( driver->bind_tx_cb || !has_tx );
 624              		.loc 1 92 3 discriminator 3 view .LVU165
  92:flight/uvos/common/uvos_com.c ****   UVOS_Assert( driver->bind_tx_cb || !has_tx );
 625              		.loc 1 92 3 discriminator 3 view .LVU166
 626 003a FEE7     		b	.L60
 627              	.LVL48:
 628              	.L54:
  87:flight/uvos/common/uvos_com.c ****   UVOS_Assert( driver );
 629              		.loc 1 87 3 discriminator 1 view .LVU167
  87:flight/uvos/common/uvos_com.c ****   UVOS_Assert( driver );
 630              		.loc 1 87 3 discriminator 1 view .LVU168
  87:flight/uvos/common/uvos_com.c ****   UVOS_Assert( driver );
 631              		.loc 1 87 3 discriminator 1 view .LVU169
 632 003c FEE7     		b	.L54
 633              	.L56:
  88:flight/uvos/common/uvos_com.c **** 
 634              		.loc 1 88 3 discriminator 2 view .LVU170
  88:flight/uvos/common/uvos_com.c **** 
 635              		.loc 1 88 3 discriminator 2 view .LVU171
  88:flight/uvos/common/uvos_com.c **** 
 636              		.loc 1 88 3 discriminator 2 view .LVU172
 637 003e FEE7     		b	.L56
 638              	.L68:
  90:flight/uvos/common/uvos_com.c ****   bool has_tx = ( tx_buffer && tx_buffer_len > 0 );
 639              		.loc 1 90 29 is_stmt 0 view .LVU173
 640 0040 0027     		movs	r7, #0
ARM GAS  C:\Users\geoma\AppData\Local\Temp\ccd1Yrtr.s 			page 19


 641 0042 EFE7     		b	.L57
 642              	.L69:
 643 0044 0127     		movs	r7, #1
 644 0046 EDE7     		b	.L57
 645              	.LVL49:
 646              	.L70:
  91:flight/uvos/common/uvos_com.c ****   UVOS_Assert( has_rx || has_tx );
 647              		.loc 1 91 29 view .LVU174
 648 0048 4FF00008 		mov	r8, #0
 649 004c F1E7     		b	.L58
 650              	.L71:
 651 004e 4FF00108 		mov	r8, #1
 652 0052 EEE7     		b	.L58
 653              	.LVL50:
 654              	.L59:
  92:flight/uvos/common/uvos_com.c ****   UVOS_Assert( driver->bind_tx_cb || !has_tx );
 655              		.loc 1 92 34 is_stmt 1 discriminator 4 view .LVU175
  93:flight/uvos/common/uvos_com.c ****   UVOS_Assert( driver->bind_rx_cb || !has_rx );
 656              		.loc 1 93 3 discriminator 4 view .LVU176
 657 0054 2369     		ldr	r3, [r4, #16]
 658 0056 B3B1     		cbz	r3, .L74
 659              	.L61:
  93:flight/uvos/common/uvos_com.c ****   UVOS_Assert( driver->bind_rx_cb || !has_rx );
 660              		.loc 1 93 47 discriminator 4 view .LVU177
  94:flight/uvos/common/uvos_com.c **** 
 661              		.loc 1 94 3 discriminator 4 view .LVU178
 662 0058 E368     		ldr	r3, [r4, #12]
 663 005a C3B1     		cbz	r3, .L75
 664              	.L63:
  94:flight/uvos/common/uvos_com.c **** 
 665              		.loc 1 94 47 discriminator 4 view .LVU179
  96:flight/uvos/common/uvos_com.c **** 
 666              		.loc 1 96 3 discriminator 4 view .LVU180
  98:flight/uvos/common/uvos_com.c ****   if ( !com_dev ) {
 667              		.loc 1 98 3 discriminator 4 view .LVU181
  98:flight/uvos/common/uvos_com.c ****   if ( !com_dev ) {
 668              		.loc 1 98 13 is_stmt 0 discriminator 4 view .LVU182
 669 005c FFF7FEFF 		bl	UVOS_COM_alloc
 670              	.LVL51:
  99:flight/uvos/common/uvos_com.c ****     goto out_fail;
 671              		.loc 1 99 3 is_stmt 1 discriminator 4 view .LVU183
  99:flight/uvos/common/uvos_com.c ****     goto out_fail;
 672              		.loc 1 99 6 is_stmt 0 discriminator 4 view .LVU184
 673 0060 8146     		mov	r9, r0
 674 0062 0028     		cmp	r0, #0
 675 0064 40D0     		beq	.L72
 103:flight/uvos/common/uvos_com.c ****   com_dev->lower_id = lower_id;
 676              		.loc 1 103 3 is_stmt 1 view .LVU185
 103:flight/uvos/common/uvos_com.c ****   com_dev->lower_id = lower_id;
 677              		.loc 1 103 21 is_stmt 0 view .LVU186
 678 0066 8460     		str	r4, [r0, #8]
 104:flight/uvos/common/uvos_com.c **** 
 679              		.loc 1 104 3 is_stmt 1 view .LVU187
 104:flight/uvos/common/uvos_com.c **** 
 680              		.loc 1 104 21 is_stmt 0 view .LVU188
 681 0068 4660     		str	r6, [r0, #4]
 106:flight/uvos/common/uvos_com.c ****   com_dev->has_tx   = has_tx;
ARM GAS  C:\Users\geoma\AppData\Local\Temp\ccd1Yrtr.s 			page 20


 682              		.loc 1 106 3 is_stmt 1 view .LVU189
 106:flight/uvos/common/uvos_com.c ****   com_dev->has_tx   = has_tx;
 683              		.loc 1 106 21 is_stmt 0 view .LVU190
 684 006a 0773     		strb	r7, [r0, #12]
 107:flight/uvos/common/uvos_com.c **** 
 685              		.loc 1 107 3 is_stmt 1 view .LVU191
 107:flight/uvos/common/uvos_com.c **** 
 686              		.loc 1 107 21 is_stmt 0 view .LVU192
 687 006c 80F80D80 		strb	r8, [r0, #13]
 109:flight/uvos/common/uvos_com.c ****     fifoBuf_init( &com_dev->rx, rx_buffer, rx_buffer_len );
 688              		.loc 1 109 3 is_stmt 1 view .LVU193
 109:flight/uvos/common/uvos_com.c ****     fifoBuf_init( &com_dev->rx, rx_buffer, rx_buffer_len );
 689              		.loc 1 109 6 is_stmt 0 view .LVU194
 690 0070 87B9     		cbnz	r7, .L76
 691              	.LVL52:
 692              	.L66:
 122:flight/uvos/common/uvos_com.c ****     fifoBuf_init( &com_dev->tx, tx_buffer, tx_buffer_len );
 693              		.loc 1 122 3 is_stmt 1 view .LVU195
 122:flight/uvos/common/uvos_com.c ****     fifoBuf_init( &com_dev->tx, tx_buffer, tx_buffer_len );
 694              		.loc 1 122 6 is_stmt 0 view .LVU196
 695 0072 B8F1000F 		cmp	r8, #0
 696 0076 29D1     		bne	.L77
 697              	.L67:
 133:flight/uvos/common/uvos_com.c ****   return 0;
 698              		.loc 1 133 3 is_stmt 1 view .LVU197
 133:flight/uvos/common/uvos_com.c ****   return 0;
 699              		.loc 1 133 11 is_stmt 0 view .LVU198
 700 0078 019B     		ldr	r3, [sp, #4]
 701 007a C3F80090 		str	r9, [r3]
 134:flight/uvos/common/uvos_com.c **** 
 702              		.loc 1 134 3 is_stmt 1 view .LVU199
 134:flight/uvos/common/uvos_com.c **** 
 703              		.loc 1 134 10 is_stmt 0 view .LVU200
 704 007e 0020     		movs	r0, #0
 705              	.L52:
 138:flight/uvos/common/uvos_com.c **** 
 706              		.loc 1 138 1 view .LVU201
 707 0080 03B0     		add	sp, sp, #12
 708              	.LCFI8:
 709              		.cfi_remember_state
 710              		.cfi_def_cfa_offset 36
 711              		@ sp needed
 712 0082 BDE8F08F 		pop	{r4, r5, r6, r7, r8, r9, r10, fp, pc}
 713              	.LVL53:
 714              	.L74:
 715              	.LCFI9:
 716              		.cfi_restore_state
  93:flight/uvos/common/uvos_com.c ****   UVOS_Assert( driver->bind_rx_cb || !has_rx );
 717              		.loc 1 93 3 discriminator 1 view .LVU202
 718 0086 B8F1000F 		cmp	r8, #0
 719 008a E5D0     		beq	.L61
 720              	.L62:
  93:flight/uvos/common/uvos_com.c ****   UVOS_Assert( driver->bind_rx_cb || !has_rx );
 721              		.loc 1 93 3 is_stmt 1 discriminator 4 view .LVU203
  93:flight/uvos/common/uvos_com.c ****   UVOS_Assert( driver->bind_rx_cb || !has_rx );
 722              		.loc 1 93 3 discriminator 4 view .LVU204
  93:flight/uvos/common/uvos_com.c ****   UVOS_Assert( driver->bind_rx_cb || !has_rx );
ARM GAS  C:\Users\geoma\AppData\Local\Temp\ccd1Yrtr.s 			page 21


 723              		.loc 1 93 3 discriminator 4 view .LVU205
 724 008c FEE7     		b	.L62
 725              	.L75:
  94:flight/uvos/common/uvos_com.c **** 
 726              		.loc 1 94 3 is_stmt 0 discriminator 1 view .LVU206
 727 008e 002F     		cmp	r7, #0
 728 0090 E4D0     		beq	.L63
 729              	.L64:
  94:flight/uvos/common/uvos_com.c **** 
 730              		.loc 1 94 3 is_stmt 1 discriminator 5 view .LVU207
  94:flight/uvos/common/uvos_com.c **** 
 731              		.loc 1 94 3 discriminator 5 view .LVU208
  94:flight/uvos/common/uvos_com.c **** 
 732              		.loc 1 94 3 discriminator 5 view .LVU209
 733 0092 FEE7     		b	.L64
 734              	.LVL54:
 735              	.L76:
 110:flight/uvos/common/uvos_com.c **** #if defined(UVOS_INCLUDE_FREERTOS)
 736              		.loc 1 110 5 view .LVU210
 737 0094 00F11004 		add	r4, r0, #16
 738              	.LVL55:
 110:flight/uvos/common/uvos_com.c **** #if defined(UVOS_INCLUDE_FREERTOS)
 739              		.loc 1 110 5 is_stmt 0 view .LVU211
 740 0098 5A46     		mov	r2, fp
 741 009a 2946     		mov	r1, r5
 742 009c 2046     		mov	r0, r4
 743              	.LVL56:
 110:flight/uvos/common/uvos_com.c **** #if defined(UVOS_INCLUDE_FREERTOS)
 744              		.loc 1 110 5 view .LVU212
 745 009e FFF7FEFF 		bl	fifoBuf_init
 746              	.LVL57:
 114:flight/uvos/common/uvos_com.c ****     if ( com_dev->driver->rx_start ) {
 747              		.loc 1 114 5 is_stmt 1 view .LVU213
 114:flight/uvos/common/uvos_com.c ****     if ( com_dev->driver->rx_start ) {
 748              		.loc 1 114 14 is_stmt 0 view .LVU214
 749 00a2 D9F80830 		ldr	r3, [r9, #8]
 114:flight/uvos/common/uvos_com.c ****     if ( com_dev->driver->rx_start ) {
 750              		.loc 1 114 22 view .LVU215
 751 00a6 DB68     		ldr	r3, [r3, #12]
 752 00a8 4A46     		mov	r2, r9
 753 00aa 1149     		ldr	r1, .L78
 754 00ac 3046     		mov	r0, r6
 755 00ae 9847     		blx	r3
 756              	.LVL58:
 115:flight/uvos/common/uvos_com.c ****       /* Start the receiver */
 757              		.loc 1 115 5 is_stmt 1 view .LVU216
 115:flight/uvos/common/uvos_com.c ****       /* Start the receiver */
 758              		.loc 1 115 17 is_stmt 0 view .LVU217
 759 00b0 D9F80830 		ldr	r3, [r9, #8]
 115:flight/uvos/common/uvos_com.c ****       /* Start the receiver */
 760              		.loc 1 115 25 view .LVU218
 761 00b4 9D68     		ldr	r5, [r3, #8]
 762              	.LVL59:
 115:flight/uvos/common/uvos_com.c ****       /* Start the receiver */
 763              		.loc 1 115 8 view .LVU219
 764 00b6 002D     		cmp	r5, #0
 765 00b8 DBD0     		beq	.L66
ARM GAS  C:\Users\geoma\AppData\Local\Temp\ccd1Yrtr.s 			page 22


 117:flight/uvos/common/uvos_com.c ****                                      fifoBuf_getFree( &com_dev->rx ) );
 766              		.loc 1 117 7 is_stmt 1 view .LVU220
 117:flight/uvos/common/uvos_com.c ****                                      fifoBuf_getFree( &com_dev->rx ) );
 767              		.loc 1 117 24 is_stmt 0 view .LVU221
 768 00ba D9F80470 		ldr	r7, [r9, #4]
 769              	.LVL60:
 117:flight/uvos/common/uvos_com.c ****                                      fifoBuf_getFree( &com_dev->rx ) );
 770              		.loc 1 117 24 view .LVU222
 771 00be 2046     		mov	r0, r4
 772 00c0 FFF7FEFF 		bl	fifoBuf_getFree
 773              	.LVL61:
 774 00c4 0146     		mov	r1, r0
 775 00c6 3846     		mov	r0, r7
 776 00c8 A847     		blx	r5
 777              	.LVL62:
 778 00ca D2E7     		b	.L66
 779              	.L77:
 123:flight/uvos/common/uvos_com.c **** #if defined(UVOS_INCLUDE_FREERTOS)
 780              		.loc 1 123 5 is_stmt 1 view .LVU223
 781 00cc 5246     		mov	r2, r10
 782 00ce 0D99     		ldr	r1, [sp, #52]
 783 00d0 09F11C00 		add	r0, r9, #28
 784 00d4 FFF7FEFF 		bl	fifoBuf_init
 785              	.LVL63:
 127:flight/uvos/common/uvos_com.c ****   }
 786              		.loc 1 127 5 view .LVU224
 127:flight/uvos/common/uvos_com.c ****   }
 787              		.loc 1 127 14 is_stmt 0 view .LVU225
 788 00d8 D9F80830 		ldr	r3, [r9, #8]
 127:flight/uvos/common/uvos_com.c ****   }
 789              		.loc 1 127 22 view .LVU226
 790 00dc 1B69     		ldr	r3, [r3, #16]
 791 00de 4A46     		mov	r2, r9
 792 00e0 0449     		ldr	r1, .L78+4
 793 00e2 3046     		mov	r0, r6
 794 00e4 9847     		blx	r3
 795              	.LVL64:
 796 00e6 C7E7     		b	.L67
 797              	.LVL65:
 798              	.L72:
 137:flight/uvos/common/uvos_com.c **** }
 799              		.loc 1 137 10 view .LVU227
 800 00e8 4FF0FF30 		mov	r0, #-1
 801              	.LVL66:
 802              	.LDL1:
 137:flight/uvos/common/uvos_com.c **** }
 803              		.loc 1 137 10 view .LVU228
 804 00ec C8E7     		b	.L52
 805              	.L79:
 806 00ee 00BF     		.align	2
 807              	.L78:
 808 00f0 00000000 		.word	UVOS_COM_RxInCallback
 809 00f4 00000000 		.word	UVOS_COM_TxOutCallback
 810              		.cfi_endproc
 811              	.LFE1374:
 813              		.section	.text.UVOS_COM_ChangeBaud,"ax",%progbits
 814              		.align	1
ARM GAS  C:\Users\geoma\AppData\Local\Temp\ccd1Yrtr.s 			page 23


 815              		.global	UVOS_COM_ChangeBaud
 816              		.syntax unified
 817              		.thumb
 818              		.thumb_func
 820              	UVOS_COM_ChangeBaud:
 821              	.LVL67:
 822              	.LFB1379:
 240:flight/uvos/common/uvos_com.c ****   struct uvos_com_dev * com_dev = ( struct uvos_com_dev * )com_id;
 823              		.loc 1 240 1 is_stmt 1 view -0
 824              		.cfi_startproc
 825              		@ args = 0, pretend = 0, frame = 0
 826              		@ frame_needed = 0, uses_anonymous_args = 0
 240:flight/uvos/common/uvos_com.c ****   struct uvos_com_dev * com_dev = ( struct uvos_com_dev * )com_id;
 827              		.loc 1 240 1 is_stmt 0 view .LVU230
 828 0000 38B5     		push	{r3, r4, r5, lr}
 829              	.LCFI10:
 830              		.cfi_def_cfa_offset 16
 831              		.cfi_offset 3, -16
 832              		.cfi_offset 4, -12
 833              		.cfi_offset 5, -8
 834              		.cfi_offset 14, -4
 835 0002 0446     		mov	r4, r0
 836 0004 0D46     		mov	r5, r1
 241:flight/uvos/common/uvos_com.c **** 
 837              		.loc 1 241 3 is_stmt 1 view .LVU231
 838              	.LVL68:
 243:flight/uvos/common/uvos_com.c ****     /* Undefined COM port for this board (see uvos_board.c) */
 839              		.loc 1 243 3 view .LVU232
 243:flight/uvos/common/uvos_com.c ****     /* Undefined COM port for this board (see uvos_board.c) */
 840              		.loc 1 243 9 is_stmt 0 view .LVU233
 841 0006 FFF7FEFF 		bl	UVOS_COM_validate
 842              	.LVL69:
 243:flight/uvos/common/uvos_com.c ****     /* Undefined COM port for this board (see uvos_board.c) */
 843              		.loc 1 243 6 view .LVU234
 844 000a 38B1     		cbz	r0, .L82
 249:flight/uvos/common/uvos_com.c ****     com_dev->driver->set_baud( com_dev->lower_id, baud );
 845              		.loc 1 249 3 is_stmt 1 view .LVU235
 249:flight/uvos/common/uvos_com.c ****     com_dev->driver->set_baud( com_dev->lower_id, baud );
 846              		.loc 1 249 15 is_stmt 0 view .LVU236
 847 000c A368     		ldr	r3, [r4, #8]
 249:flight/uvos/common/uvos_com.c ****     com_dev->driver->set_baud( com_dev->lower_id, baud );
 848              		.loc 1 249 23 view .LVU237
 849 000e 1B68     		ldr	r3, [r3]
 249:flight/uvos/common/uvos_com.c ****     com_dev->driver->set_baud( com_dev->lower_id, baud );
 850              		.loc 1 249 6 view .LVU238
 851 0010 3BB1     		cbz	r3, .L83
 250:flight/uvos/common/uvos_com.c ****   }
 852              		.loc 1 250 5 is_stmt 1 view .LVU239
 853 0012 2946     		mov	r1, r5
 854 0014 6068     		ldr	r0, [r4, #4]
 855 0016 9847     		blx	r3
 856              	.LVL70:
 253:flight/uvos/common/uvos_com.c **** }
 857              		.loc 1 253 10 is_stmt 0 view .LVU240
 858 0018 0020     		movs	r0, #0
 859              	.L80:
 254:flight/uvos/common/uvos_com.c **** 
ARM GAS  C:\Users\geoma\AppData\Local\Temp\ccd1Yrtr.s 			page 24


 860              		.loc 1 254 1 view .LVU241
 861 001a 38BD     		pop	{r3, r4, r5, pc}
 862              	.LVL71:
 863              	.L82:
 245:flight/uvos/common/uvos_com.c ****   }
 864              		.loc 1 245 12 view .LVU242
 865 001c 4FF0FF30 		mov	r0, #-1
 866 0020 FBE7     		b	.L80
 867              	.L83:
 253:flight/uvos/common/uvos_com.c **** }
 868              		.loc 1 253 10 view .LVU243
 869 0022 0020     		movs	r0, #0
 870 0024 F9E7     		b	.L80
 871              		.cfi_endproc
 872              	.LFE1379:
 874              		.section	.text.UVOS_COM_RegisterBaudRateCallback,"ax",%progbits
 875              		.align	1
 876              		.global	UVOS_COM_RegisterBaudRateCallback
 877              		.syntax unified
 878              		.thumb
 879              		.thumb_func
 881              	UVOS_COM_RegisterBaudRateCallback:
 882              	.LVL72:
 883              	.LFB1380:
 265:flight/uvos/common/uvos_com.c ****   struct uvos_com_dev * com_dev = ( struct uvos_com_dev * )com_id;
 884              		.loc 1 265 1 is_stmt 1 view -0
 885              		.cfi_startproc
 886              		@ args = 0, pretend = 0, frame = 0
 887              		@ frame_needed = 0, uses_anonymous_args = 0
 265:flight/uvos/common/uvos_com.c ****   struct uvos_com_dev * com_dev = ( struct uvos_com_dev * )com_id;
 888              		.loc 1 265 1 is_stmt 0 view .LVU245
 889 0000 70B5     		push	{r4, r5, r6, lr}
 890              	.LCFI11:
 891              		.cfi_def_cfa_offset 16
 892              		.cfi_offset 4, -16
 893              		.cfi_offset 5, -12
 894              		.cfi_offset 6, -8
 895              		.cfi_offset 14, -4
 896 0002 0446     		mov	r4, r0
 897 0004 0D46     		mov	r5, r1
 898 0006 1646     		mov	r6, r2
 266:flight/uvos/common/uvos_com.c **** 
 899              		.loc 1 266 3 is_stmt 1 view .LVU246
 900              	.LVL73:
 268:flight/uvos/common/uvos_com.c ****     /* Undefined COM port for this board (see uvos_board.c) */
 901              		.loc 1 268 3 view .LVU247
 268:flight/uvos/common/uvos_com.c ****     /* Undefined COM port for this board (see uvos_board.c) */
 902              		.loc 1 268 9 is_stmt 0 view .LVU248
 903 0008 FFF7FEFF 		bl	UVOS_COM_validate
 904              	.LVL74:
 268:flight/uvos/common/uvos_com.c ****     /* Undefined COM port for this board (see uvos_board.c) */
 905              		.loc 1 268 6 view .LVU249
 906 000c 40B1     		cbz	r0, .L87
 274:flight/uvos/common/uvos_com.c ****     com_dev->driver->bind_baud_rate_cb( com_dev->lower_id, baud_rate_cb, context );
 907              		.loc 1 274 3 is_stmt 1 view .LVU250
 274:flight/uvos/common/uvos_com.c ****     com_dev->driver->bind_baud_rate_cb( com_dev->lower_id, baud_rate_cb, context );
 908              		.loc 1 274 15 is_stmt 0 view .LVU251
ARM GAS  C:\Users\geoma\AppData\Local\Temp\ccd1Yrtr.s 			page 25


 909 000e A368     		ldr	r3, [r4, #8]
 274:flight/uvos/common/uvos_com.c ****     com_dev->driver->bind_baud_rate_cb( com_dev->lower_id, baud_rate_cb, context );
 910              		.loc 1 274 23 view .LVU252
 911 0010 5B69     		ldr	r3, [r3, #20]
 274:flight/uvos/common/uvos_com.c ****     com_dev->driver->bind_baud_rate_cb( com_dev->lower_id, baud_rate_cb, context );
 912              		.loc 1 274 6 view .LVU253
 913 0012 43B1     		cbz	r3, .L88
 275:flight/uvos/common/uvos_com.c ****   }
 914              		.loc 1 275 5 is_stmt 1 view .LVU254
 915 0014 3246     		mov	r2, r6
 916 0016 2946     		mov	r1, r5
 917 0018 6068     		ldr	r0, [r4, #4]
 918 001a 9847     		blx	r3
 919              	.LVL75:
 278:flight/uvos/common/uvos_com.c **** }
 920              		.loc 1 278 10 is_stmt 0 view .LVU255
 921 001c 0020     		movs	r0, #0
 922              	.L85:
 279:flight/uvos/common/uvos_com.c **** 
 923              		.loc 1 279 1 view .LVU256
 924 001e 70BD     		pop	{r4, r5, r6, pc}
 925              	.LVL76:
 926              	.L87:
 270:flight/uvos/common/uvos_com.c ****   }
 927              		.loc 1 270 12 view .LVU257
 928 0020 4FF0FF30 		mov	r0, #-1
 929 0024 FBE7     		b	.L85
 930              	.L88:
 278:flight/uvos/common/uvos_com.c **** }
 931              		.loc 1 278 10 view .LVU258
 932 0026 0020     		movs	r0, #0
 933 0028 F9E7     		b	.L85
 934              		.cfi_endproc
 935              	.LFE1380:
 937              		.section	.text.UVOS_COM_SendBufferNonBlocking,"ax",%progbits
 938              		.align	1
 939              		.global	UVOS_COM_SendBufferNonBlocking
 940              		.syntax unified
 941              		.thumb
 942              		.thumb_func
 944              	UVOS_COM_SendBufferNonBlocking:
 945              	.LVL77:
 946              	.LFB1382:
 313:flight/uvos/common/uvos_com.c **** 
 314:flight/uvos/common/uvos_com.c **** /**
 315:flight/uvos/common/uvos_com.c ****  * Sends a package over given port
 316:flight/uvos/common/uvos_com.c ****  * \param[in] port COM port
 317:flight/uvos/common/uvos_com.c ****  * \param[in] buffer character buffer
 318:flight/uvos/common/uvos_com.c ****  * \param[in] len buffer length
 319:flight/uvos/common/uvos_com.c ****  * \return -1 if port not available
 320:flight/uvos/common/uvos_com.c ****  * \return -2 if non-blocking mode activated: buffer is full
 321:flight/uvos/common/uvos_com.c ****  *            caller should retry until buffer is free again
 322:flight/uvos/common/uvos_com.c ****  * \return -3 another thread is already sending, caller should
 323:flight/uvos/common/uvos_com.c ****  *            retry until com is available again
 324:flight/uvos/common/uvos_com.c ****  * \return number of bytes transmitted on success
 325:flight/uvos/common/uvos_com.c ****  */
 326:flight/uvos/common/uvos_com.c **** int32_t UVOS_COM_SendBufferNonBlocking( uint32_t com_id, const uint8_t * buffer, uint16_t len )
ARM GAS  C:\Users\geoma\AppData\Local\Temp\ccd1Yrtr.s 			page 26


 327:flight/uvos/common/uvos_com.c **** {
 947              		.loc 1 327 1 is_stmt 1 view -0
 948              		.cfi_startproc
 949              		@ args = 0, pretend = 0, frame = 0
 950              		@ frame_needed = 0, uses_anonymous_args = 0
 951              		.loc 1 327 1 is_stmt 0 view .LVU260
 952 0000 70B5     		push	{r4, r5, r6, lr}
 953              	.LCFI12:
 954              		.cfi_def_cfa_offset 16
 955              		.cfi_offset 4, -16
 956              		.cfi_offset 5, -12
 957              		.cfi_offset 6, -8
 958              		.cfi_offset 14, -4
 959 0002 0446     		mov	r4, r0
 960 0004 0D46     		mov	r5, r1
 961 0006 1646     		mov	r6, r2
 328:flight/uvos/common/uvos_com.c ****   struct uvos_com_dev * com_dev = ( struct uvos_com_dev * )com_id;
 962              		.loc 1 328 3 is_stmt 1 view .LVU261
 963              	.LVL78:
 329:flight/uvos/common/uvos_com.c **** 
 330:flight/uvos/common/uvos_com.c ****   if ( !UVOS_COM_validate( com_dev ) ) {
 964              		.loc 1 330 3 view .LVU262
 965              		.loc 1 330 9 is_stmt 0 view .LVU263
 966 0008 FFF7FEFF 		bl	UVOS_COM_validate
 967              	.LVL79:
 968              		.loc 1 330 6 view .LVU264
 969 000c 28B1     		cbz	r0, .L92
 331:flight/uvos/common/uvos_com.c ****     /* Undefined COM port for this board (see uvos_board.c) */
 332:flight/uvos/common/uvos_com.c ****     return -1;
 333:flight/uvos/common/uvos_com.c ****   }
 334:flight/uvos/common/uvos_com.c **** #if defined(UVOS_INCLUDE_FREERTOS)
 335:flight/uvos/common/uvos_com.c ****   if ( xSemaphoreTake( com_dev->sendbuffer_sem, 0 ) != pdTRUE ) {
 336:flight/uvos/common/uvos_com.c ****     return -3;
 337:flight/uvos/common/uvos_com.c ****   }
 338:flight/uvos/common/uvos_com.c **** #endif /* UVOS_INCLUDE_FREERTOS */
 339:flight/uvos/common/uvos_com.c ****   int32_t ret = UVOS_COM_SendBufferNonBlockingInternal( com_dev, buffer, len );
 970              		.loc 1 339 3 is_stmt 1 view .LVU265
 971              		.loc 1 339 17 is_stmt 0 view .LVU266
 972 000e 3246     		mov	r2, r6
 973 0010 2946     		mov	r1, r5
 974 0012 2046     		mov	r0, r4
 975 0014 FFF7FEFF 		bl	UVOS_COM_SendBufferNonBlockingInternal
 976              	.LVL80:
 340:flight/uvos/common/uvos_com.c **** #if defined(UVOS_INCLUDE_FREERTOS)
 341:flight/uvos/common/uvos_com.c ****   xSemaphoreGive( com_dev->sendbuffer_sem );
 342:flight/uvos/common/uvos_com.c **** #endif /* UVOS_INCLUDE_FREERTOS */
 343:flight/uvos/common/uvos_com.c ****   return ret;
 977              		.loc 1 343 3 is_stmt 1 view .LVU267
 978              	.L90:
 344:flight/uvos/common/uvos_com.c **** }
 979              		.loc 1 344 1 is_stmt 0 view .LVU268
 980 0018 70BD     		pop	{r4, r5, r6, pc}
 981              	.LVL81:
 982              	.L92:
 332:flight/uvos/common/uvos_com.c ****   }
 983              		.loc 1 332 12 view .LVU269
 984 001a 4FF0FF30 		mov	r0, #-1
ARM GAS  C:\Users\geoma\AppData\Local\Temp\ccd1Yrtr.s 			page 27


 985 001e FBE7     		b	.L90
 986              		.cfi_endproc
 987              	.LFE1382:
 989              		.section	.text.UVOS_COM_SendBuffer,"ax",%progbits
 990              		.align	1
 991              		.global	UVOS_COM_SendBuffer
 992              		.syntax unified
 993              		.thumb
 994              		.thumb_func
 996              	UVOS_COM_SendBuffer:
 997              	.LVL82:
 998              	.LFB1383:
 345:flight/uvos/common/uvos_com.c **** 
 346:flight/uvos/common/uvos_com.c **** 
 347:flight/uvos/common/uvos_com.c **** /**
 348:flight/uvos/common/uvos_com.c ****  * Sends a package over given port
 349:flight/uvos/common/uvos_com.c ****  * (blocking function)
 350:flight/uvos/common/uvos_com.c ****  * \param[in] port COM port
 351:flight/uvos/common/uvos_com.c ****  * \param[in] buffer character buffer
 352:flight/uvos/common/uvos_com.c ****  * \param[in] len buffer length
 353:flight/uvos/common/uvos_com.c ****  * \return -1 if port not available
 354:flight/uvos/common/uvos_com.c ****  * \return -2 if mutex can't be taken;
 355:flight/uvos/common/uvos_com.c ****  * \return -3 if data cannot be sent in the max allotted time of 5000msec
 356:flight/uvos/common/uvos_com.c ****  * \return number of bytes transmitted on success
 357:flight/uvos/common/uvos_com.c ****  */
 358:flight/uvos/common/uvos_com.c **** int32_t UVOS_COM_SendBuffer( uint32_t com_id, const uint8_t * buffer, uint16_t len )
 359:flight/uvos/common/uvos_com.c **** {
 999              		.loc 1 359 1 is_stmt 1 view -0
 1000              		.cfi_startproc
 1001              		@ args = 0, pretend = 0, frame = 0
 1002              		@ frame_needed = 0, uses_anonymous_args = 0
 1003              		.loc 1 359 1 is_stmt 0 view .LVU271
 1004 0000 2DE9F84F 		push	{r3, r4, r5, r6, r7, r8, r9, r10, fp, lr}
 1005              	.LCFI13:
 1006              		.cfi_def_cfa_offset 40
 1007              		.cfi_offset 3, -40
 1008              		.cfi_offset 4, -36
 1009              		.cfi_offset 5, -32
 1010              		.cfi_offset 6, -28
 1011              		.cfi_offset 7, -24
 1012              		.cfi_offset 8, -20
 1013              		.cfi_offset 9, -16
 1014              		.cfi_offset 10, -12
 1015              		.cfi_offset 11, -8
 1016              		.cfi_offset 14, -4
 1017 0004 0446     		mov	r4, r0
 1018 0006 0D46     		mov	r5, r1
 1019 0008 1746     		mov	r7, r2
 360:flight/uvos/common/uvos_com.c ****   struct uvos_com_dev * com_dev = ( struct uvos_com_dev * )com_id;
 1020              		.loc 1 360 3 is_stmt 1 view .LVU272
 1021              	.LVL83:
 361:flight/uvos/common/uvos_com.c **** 
 362:flight/uvos/common/uvos_com.c ****   if ( !UVOS_COM_validate( com_dev ) ) {
 1022              		.loc 1 362 3 view .LVU273
 1023              		.loc 1 362 9 is_stmt 0 view .LVU274
 1024 000a FFF7FEFF 		bl	UVOS_COM_validate
 1025              	.LVL84:
ARM GAS  C:\Users\geoma\AppData\Local\Temp\ccd1Yrtr.s 			page 28


 1026              		.loc 1 362 6 view .LVU275
 1027 000e 78B3     		cbz	r0, .L104
 363:flight/uvos/common/uvos_com.c ****     /* Undefined COM port for this board (see uvos_board.c) */
 364:flight/uvos/common/uvos_com.c ****     return -1;
 365:flight/uvos/common/uvos_com.c ****   }
 366:flight/uvos/common/uvos_com.c ****   UVOS_Assert( com_dev->has_tx );
 1028              		.loc 1 366 3 is_stmt 1 view .LVU276
 1029 0010 637B     		ldrb	r3, [r4, #13]	@ zero_extendqisi2
 1030 0012 03B9     		cbnz	r3, .L96
 1031              	.L97:
 1032              		.loc 1 366 3 discriminator 1 view .LVU277
 1033              		.loc 1 366 3 discriminator 1 view .LVU278
 1034              		.loc 1 366 3 discriminator 1 view .LVU279
 1035 0014 FEE7     		b	.L97
 1036              	.L96:
 1037              		.loc 1 366 33 discriminator 2 view .LVU280
 367:flight/uvos/common/uvos_com.c **** #if defined(UVOS_INCLUDE_FREERTOS)
 368:flight/uvos/common/uvos_com.c ****   if ( xSemaphoreTake( com_dev->sendbuffer_sem, 5 ) != pdTRUE ) {
 369:flight/uvos/common/uvos_com.c ****     return -2;
 370:flight/uvos/common/uvos_com.c ****   }
 371:flight/uvos/common/uvos_com.c **** #endif /* UVOS_INCLUDE_FREERTOS */
 372:flight/uvos/common/uvos_com.c ****   uint32_t max_frag_len  = fifoBuf_getSize( &com_dev->tx );
 1038              		.loc 1 372 3 discriminator 2 view .LVU281
 1039              		.loc 1 372 28 is_stmt 0 discriminator 2 view .LVU282
 1040 0016 04F11C09 		add	r9, r4, #28
 1041 001a 4846     		mov	r0, r9
 1042 001c FFF7FEFF 		bl	fifoBuf_getSize
 1043              	.LVL85:
 1044 0020 8046     		mov	r8, r0
 1045              	.LVL86:
 373:flight/uvos/common/uvos_com.c ****   uint32_t bytes_to_send = len;
 1046              		.loc 1 373 3 is_stmt 1 discriminator 2 view .LVU283
 1047              		.loc 1 373 12 is_stmt 0 discriminator 2 view .LVU284
 1048 0022 3E46     		mov	r6, r7
 1049              	.LVL87:
 374:flight/uvos/common/uvos_com.c ****   while ( bytes_to_send ) {
 1050              		.loc 1 374 3 is_stmt 1 discriminator 2 view .LVU285
 1051              		.loc 1 374 9 is_stmt 0 discriminator 2 view .LVU286
 1052 0024 09E0     		b	.L98
 1053              	.LVL88:
 1054              	.L105:
 1055              	.LBB2:
 375:flight/uvos/common/uvos_com.c ****     uint32_t frag_size;
 376:flight/uvos/common/uvos_com.c **** 
 377:flight/uvos/common/uvos_com.c ****     if ( bytes_to_send > max_frag_len ) {
 378:flight/uvos/common/uvos_com.c ****       frag_size = max_frag_len;
 379:flight/uvos/common/uvos_com.c ****     } else {
 380:flight/uvos/common/uvos_com.c ****       frag_size = bytes_to_send;
 1056              		.loc 1 380 17 view .LVU287
 1057 0026 3246     		mov	r2, r6
 1058              	.L99:
 1059              	.LVL89:
 381:flight/uvos/common/uvos_com.c ****     }
 382:flight/uvos/common/uvos_com.c ****     int32_t rc = UVOS_COM_SendBufferNonBlockingInternal( com_dev, buffer, frag_size );
 1060              		.loc 1 382 5 is_stmt 1 view .LVU288
 1061              		.loc 1 382 18 is_stmt 0 view .LVU289
 1062 0028 92B2     		uxth	r2, r2
ARM GAS  C:\Users\geoma\AppData\Local\Temp\ccd1Yrtr.s 			page 29


 1063              	.LVL90:
 1064              		.loc 1 382 18 view .LVU290
 1065 002a 2946     		mov	r1, r5
 1066 002c 2046     		mov	r0, r4
 1067 002e FFF7FEFF 		bl	UVOS_COM_SendBufferNonBlockingInternal
 1068              	.LVL91:
 383:flight/uvos/common/uvos_com.c ****     if ( rc >= 0 ) {
 1069              		.loc 1 383 5 is_stmt 1 view .LVU291
 1070              		.loc 1 383 8 is_stmt 0 view .LVU292
 1071 0032 0028     		cmp	r0, #0
 1072              		.loc 1 383 8 view .LVU293
 1073 0034 06DB     		blt	.L100
 384:flight/uvos/common/uvos_com.c ****       bytes_to_send -= rc;
 1074              		.loc 1 384 7 is_stmt 1 view .LVU294
 1075              		.loc 1 384 21 is_stmt 0 view .LVU295
 1076 0036 361A     		subs	r6, r6, r0
 1077              	.LVL92:
 385:flight/uvos/common/uvos_com.c ****       buffer += rc;
 1078              		.loc 1 385 7 is_stmt 1 view .LVU296
 1079              		.loc 1 385 14 is_stmt 0 view .LVU297
 1080 0038 0544     		add	r5, r5, r0
 1081              	.LVL93:
 1082              	.L98:
 1083              		.loc 1 385 14 view .LVU298
 1084              	.LBE2:
 374:flight/uvos/common/uvos_com.c ****     uint32_t frag_size;
 1085              		.loc 1 374 9 is_stmt 1 view .LVU299
 1086 003a BEB1     		cbz	r6, .L107
 1087              	.LBB3:
 375:flight/uvos/common/uvos_com.c **** 
 1088              		.loc 1 375 5 view .LVU300
 377:flight/uvos/common/uvos_com.c ****       frag_size = max_frag_len;
 1089              		.loc 1 377 5 view .LVU301
 377:flight/uvos/common/uvos_com.c ****       frag_size = max_frag_len;
 1090              		.loc 1 377 8 is_stmt 0 view .LVU302
 1091 003c 4645     		cmp	r6, r8
 1092 003e F2D9     		bls	.L105
 378:flight/uvos/common/uvos_com.c ****     } else {
 1093              		.loc 1 378 17 view .LVU303
 1094 0040 4246     		mov	r2, r8
 1095 0042 F1E7     		b	.L99
 1096              	.LVL94:
 1097              	.L100:
 386:flight/uvos/common/uvos_com.c ****     } else {
 387:flight/uvos/common/uvos_com.c ****       switch ( rc ) {
 1098              		.loc 1 387 7 is_stmt 1 view .LVU304
 1099 0044 10F1020F 		cmn	r0, #2
 1100 0048 01D0     		beq	.L108
 1101              	.LVL95:
 1102              	.L94:
 1103              		.loc 1 387 7 is_stmt 0 view .LVU305
 1104              	.LBE3:
 388:flight/uvos/common/uvos_com.c ****       case -1:
 389:flight/uvos/common/uvos_com.c **** #if defined(UVOS_INCLUDE_FREERTOS)
 390:flight/uvos/common/uvos_com.c ****         xSemaphoreGive( com_dev->sendbuffer_sem );
 391:flight/uvos/common/uvos_com.c **** #endif /* UVOS_INCLUDE_FREERTOS */
 392:flight/uvos/common/uvos_com.c ****         /* Device is invalid, this will never work */
ARM GAS  C:\Users\geoma\AppData\Local\Temp\ccd1Yrtr.s 			page 30


 393:flight/uvos/common/uvos_com.c ****         return -1;
 394:flight/uvos/common/uvos_com.c **** 
 395:flight/uvos/common/uvos_com.c ****       case -2:
 396:flight/uvos/common/uvos_com.c ****         /* Device is busy, wait for the underlying device to free some space and retry */
 397:flight/uvos/common/uvos_com.c ****         /* Make sure the transmitter is running while we wait */
 398:flight/uvos/common/uvos_com.c ****         if ( com_dev->driver->tx_start ) {
 399:flight/uvos/common/uvos_com.c ****           ( com_dev->driver->tx_start )( com_dev->lower_id,
 400:flight/uvos/common/uvos_com.c ****                                          fifoBuf_getUsed( &com_dev->tx ) );
 401:flight/uvos/common/uvos_com.c ****         }
 402:flight/uvos/common/uvos_com.c **** #if defined(UVOS_INCLUDE_FREERTOS)
 403:flight/uvos/common/uvos_com.c ****         if ( xSemaphoreTake( com_dev->tx_sem, 5000 ) != pdTRUE ) {
 404:flight/uvos/common/uvos_com.c ****           xSemaphoreGive( com_dev->sendbuffer_sem );
 405:flight/uvos/common/uvos_com.c ****           return -3;
 406:flight/uvos/common/uvos_com.c ****         }
 407:flight/uvos/common/uvos_com.c **** #endif
 408:flight/uvos/common/uvos_com.c ****         continue;
 409:flight/uvos/common/uvos_com.c ****       default:
 410:flight/uvos/common/uvos_com.c ****         /* Unhandled return code */
 411:flight/uvos/common/uvos_com.c **** #if defined(UVOS_INCLUDE_FREERTOS)
 412:flight/uvos/common/uvos_com.c ****         xSemaphoreGive( com_dev->sendbuffer_sem );
 413:flight/uvos/common/uvos_com.c **** #endif /* UVOS_INCLUDE_FREERTOS */
 414:flight/uvos/common/uvos_com.c ****         return rc;
 415:flight/uvos/common/uvos_com.c ****       }
 416:flight/uvos/common/uvos_com.c ****     }
 417:flight/uvos/common/uvos_com.c ****   }
 418:flight/uvos/common/uvos_com.c **** #if defined(UVOS_INCLUDE_FREERTOS)
 419:flight/uvos/common/uvos_com.c ****   xSemaphoreGive( com_dev->sendbuffer_sem );
 420:flight/uvos/common/uvos_com.c **** #endif /* UVOS_INCLUDE_FREERTOS */
 421:flight/uvos/common/uvos_com.c ****   return len;
 422:flight/uvos/common/uvos_com.c **** }
 1105              		.loc 1 422 1 view .LVU306
 1106 004a BDE8F88F 		pop	{r3, r4, r5, r6, r7, r8, r9, r10, fp, pc}
 1107              	.LVL96:
 1108              	.L108:
 1109              	.LBB4:
 398:flight/uvos/common/uvos_com.c ****           ( com_dev->driver->tx_start )( com_dev->lower_id,
 1110              		.loc 1 398 9 is_stmt 1 view .LVU307
 398:flight/uvos/common/uvos_com.c ****           ( com_dev->driver->tx_start )( com_dev->lower_id,
 1111              		.loc 1 398 21 is_stmt 0 view .LVU308
 1112 004e A368     		ldr	r3, [r4, #8]
 398:flight/uvos/common/uvos_com.c ****           ( com_dev->driver->tx_start )( com_dev->lower_id,
 1113              		.loc 1 398 29 view .LVU309
 1114 0050 D3F804A0 		ldr	r10, [r3, #4]
 398:flight/uvos/common/uvos_com.c ****           ( com_dev->driver->tx_start )( com_dev->lower_id,
 1115              		.loc 1 398 12 view .LVU310
 1116 0054 BAF1000F 		cmp	r10, #0
 1117 0058 EFD0     		beq	.L98
 399:flight/uvos/common/uvos_com.c ****                                          fifoBuf_getUsed( &com_dev->tx ) );
 1118              		.loc 1 399 11 is_stmt 1 view .LVU311
 399:flight/uvos/common/uvos_com.c ****                                          fifoBuf_getUsed( &com_dev->tx ) );
 1119              		.loc 1 399 28 is_stmt 0 view .LVU312
 1120 005a D4F804B0 		ldr	fp, [r4, #4]
 1121 005e 4846     		mov	r0, r9
 1122              	.LVL97:
 399:flight/uvos/common/uvos_com.c ****                                          fifoBuf_getUsed( &com_dev->tx ) );
 1123              		.loc 1 399 28 view .LVU313
 1124 0060 FFF7FEFF 		bl	fifoBuf_getUsed
ARM GAS  C:\Users\geoma\AppData\Local\Temp\ccd1Yrtr.s 			page 31


 1125              	.LVL98:
 1126 0064 0146     		mov	r1, r0
 1127 0066 5846     		mov	r0, fp
 1128 0068 D047     		blx	r10
 1129              	.LVL99:
 408:flight/uvos/common/uvos_com.c ****       default:
 1130              		.loc 1 408 9 is_stmt 1 view .LVU314
 1131 006a E6E7     		b	.L98
 1132              	.L107:
 408:flight/uvos/common/uvos_com.c ****       default:
 1133              		.loc 1 408 9 is_stmt 0 view .LVU315
 1134              	.LBE4:
 421:flight/uvos/common/uvos_com.c **** }
 1135              		.loc 1 421 3 is_stmt 1 view .LVU316
 421:flight/uvos/common/uvos_com.c **** }
 1136              		.loc 1 421 10 is_stmt 0 view .LVU317
 1137 006c 3846     		mov	r0, r7
 1138 006e ECE7     		b	.L94
 1139              	.LVL100:
 1140              	.L104:
 364:flight/uvos/common/uvos_com.c ****   }
 1141              		.loc 1 364 12 view .LVU318
 1142 0070 4FF0FF30 		mov	r0, #-1
 1143 0074 E9E7     		b	.L94
 1144              		.cfi_endproc
 1145              	.LFE1383:
 1147              		.section	.text.UVOS_COM_SendCharNonBlocking,"ax",%progbits
 1148              		.align	1
 1149              		.global	UVOS_COM_SendCharNonBlocking
 1150              		.syntax unified
 1151              		.thumb
 1152              		.thumb_func
 1154              	UVOS_COM_SendCharNonBlocking:
 1155              	.LVL101:
 1156              	.LFB1384:
 423:flight/uvos/common/uvos_com.c **** 
 424:flight/uvos/common/uvos_com.c **** /**
 425:flight/uvos/common/uvos_com.c ****  * Sends a single character over given port
 426:flight/uvos/common/uvos_com.c ****  * \param[in] port COM port
 427:flight/uvos/common/uvos_com.c ****  * \param[in] c character
 428:flight/uvos/common/uvos_com.c ****  * \return -1 if port not available
 429:flight/uvos/common/uvos_com.c ****  * \return -2 buffer is full
 430:flight/uvos/common/uvos_com.c ****  *            caller should retry until buffer is free again
 431:flight/uvos/common/uvos_com.c ****  * \return 0 on success
 432:flight/uvos/common/uvos_com.c ****  */
 433:flight/uvos/common/uvos_com.c **** int32_t UVOS_COM_SendCharNonBlocking( uint32_t com_id, char c )
 434:flight/uvos/common/uvos_com.c **** {
 1157              		.loc 1 434 1 is_stmt 1 view -0
 1158              		.cfi_startproc
 1159              		@ args = 0, pretend = 0, frame = 8
 1160              		@ frame_needed = 0, uses_anonymous_args = 0
 1161              		.loc 1 434 1 is_stmt 0 view .LVU320
 1162 0000 00B5     		push	{lr}
 1163              	.LCFI14:
 1164              		.cfi_def_cfa_offset 4
 1165              		.cfi_offset 14, -4
 1166 0002 83B0     		sub	sp, sp, #12
ARM GAS  C:\Users\geoma\AppData\Local\Temp\ccd1Yrtr.s 			page 32


 1167              	.LCFI15:
 1168              		.cfi_def_cfa_offset 16
 1169 0004 8DF80710 		strb	r1, [sp, #7]
 435:flight/uvos/common/uvos_com.c ****   return UVOS_COM_SendBufferNonBlocking( com_id, ( uint8_t * )&c, 1 );
 1170              		.loc 1 435 3 is_stmt 1 view .LVU321
 1171              		.loc 1 435 10 is_stmt 0 view .LVU322
 1172 0008 0122     		movs	r2, #1
 1173 000a 0DF10701 		add	r1, sp, #7
 1174              	.LVL102:
 1175              		.loc 1 435 10 view .LVU323
 1176 000e FFF7FEFF 		bl	UVOS_COM_SendBufferNonBlocking
 1177              	.LVL103:
 436:flight/uvos/common/uvos_com.c **** }
 1178              		.loc 1 436 1 view .LVU324
 1179 0012 03B0     		add	sp, sp, #12
 1180              	.LCFI16:
 1181              		.cfi_def_cfa_offset 4
 1182              		@ sp needed
 1183 0014 5DF804FB 		ldr	pc, [sp], #4
 1184              		.cfi_endproc
 1185              	.LFE1384:
 1187              		.section	.text.UVOS_COM_SendChar,"ax",%progbits
 1188              		.align	1
 1189              		.global	UVOS_COM_SendChar
 1190              		.syntax unified
 1191              		.thumb
 1192              		.thumb_func
 1194              	UVOS_COM_SendChar:
 1195              	.LVL104:
 1196              	.LFB1385:
 437:flight/uvos/common/uvos_com.c **** 
 438:flight/uvos/common/uvos_com.c **** /**
 439:flight/uvos/common/uvos_com.c ****  * Sends a single character over given port
 440:flight/uvos/common/uvos_com.c ****  * (blocking function)
 441:flight/uvos/common/uvos_com.c ****  * \param[in] port COM port
 442:flight/uvos/common/uvos_com.c ****  * \param[in] c character
 443:flight/uvos/common/uvos_com.c ****  * \return -1 if port not available
 444:flight/uvos/common/uvos_com.c ****  * \return 0 on success
 445:flight/uvos/common/uvos_com.c ****  */
 446:flight/uvos/common/uvos_com.c **** int32_t UVOS_COM_SendChar( uint32_t com_id, char c )
 447:flight/uvos/common/uvos_com.c **** {
 1197              		.loc 1 447 1 is_stmt 1 view -0
 1198              		.cfi_startproc
 1199              		@ args = 0, pretend = 0, frame = 8
 1200              		@ frame_needed = 0, uses_anonymous_args = 0
 1201              		.loc 1 447 1 is_stmt 0 view .LVU326
 1202 0000 00B5     		push	{lr}
 1203              	.LCFI17:
 1204              		.cfi_def_cfa_offset 4
 1205              		.cfi_offset 14, -4
 1206 0002 83B0     		sub	sp, sp, #12
 1207              	.LCFI18:
 1208              		.cfi_def_cfa_offset 16
 1209 0004 8DF80710 		strb	r1, [sp, #7]
 448:flight/uvos/common/uvos_com.c ****   return UVOS_COM_SendBuffer( com_id, ( uint8_t * )&c, 1 );
 1210              		.loc 1 448 3 is_stmt 1 view .LVU327
 1211              		.loc 1 448 10 is_stmt 0 view .LVU328
ARM GAS  C:\Users\geoma\AppData\Local\Temp\ccd1Yrtr.s 			page 33


 1212 0008 0122     		movs	r2, #1
 1213 000a 0DF10701 		add	r1, sp, #7
 1214              	.LVL105:
 1215              		.loc 1 448 10 view .LVU329
 1216 000e FFF7FEFF 		bl	UVOS_COM_SendBuffer
 1217              	.LVL106:
 449:flight/uvos/common/uvos_com.c **** }
 1218              		.loc 1 449 1 view .LVU330
 1219 0012 03B0     		add	sp, sp, #12
 1220              	.LCFI19:
 1221              		.cfi_def_cfa_offset 4
 1222              		@ sp needed
 1223 0014 5DF804FB 		ldr	pc, [sp], #4
 1224              		.cfi_endproc
 1225              	.LFE1385:
 1227              		.section	.text.UVOS_COM_SendStringNonBlocking,"ax",%progbits
 1228              		.align	1
 1229              		.global	UVOS_COM_SendStringNonBlocking
 1230              		.syntax unified
 1231              		.thumb
 1232              		.thumb_func
 1234              	UVOS_COM_SendStringNonBlocking:
 1235              	.LVL107:
 1236              	.LFB1386:
 450:flight/uvos/common/uvos_com.c **** 
 451:flight/uvos/common/uvos_com.c **** /**
 452:flight/uvos/common/uvos_com.c ****  * Sends a string over given port
 453:flight/uvos/common/uvos_com.c ****  * \param[in] port COM port
 454:flight/uvos/common/uvos_com.c ****  * \param[in] str zero-terminated string
 455:flight/uvos/common/uvos_com.c ****  * \return -1 if port not available
 456:flight/uvos/common/uvos_com.c ****  * \return -2 buffer is full
 457:flight/uvos/common/uvos_com.c ****  *         caller should retry until buffer is free again
 458:flight/uvos/common/uvos_com.c ****  * \return 0 on success
 459:flight/uvos/common/uvos_com.c ****  */
 460:flight/uvos/common/uvos_com.c **** int32_t UVOS_COM_SendStringNonBlocking( uint32_t com_id, const char * str )
 461:flight/uvos/common/uvos_com.c **** {
 1237              		.loc 1 461 1 is_stmt 1 view -0
 1238              		.cfi_startproc
 1239              		@ args = 0, pretend = 0, frame = 0
 1240              		@ frame_needed = 0, uses_anonymous_args = 0
 1241              		.loc 1 461 1 is_stmt 0 view .LVU332
 1242 0000 38B5     		push	{r3, r4, r5, lr}
 1243              	.LCFI20:
 1244              		.cfi_def_cfa_offset 16
 1245              		.cfi_offset 3, -16
 1246              		.cfi_offset 4, -12
 1247              		.cfi_offset 5, -8
 1248              		.cfi_offset 14, -4
 1249 0002 0546     		mov	r5, r0
 1250 0004 0C46     		mov	r4, r1
 462:flight/uvos/common/uvos_com.c ****   return UVOS_COM_SendBufferNonBlocking( com_id, ( uint8_t * )str, ( uint16_t )strlen( str ) );
 1251              		.loc 1 462 3 is_stmt 1 view .LVU333
 1252              		.loc 1 462 80 is_stmt 0 view .LVU334
 1253 0006 0846     		mov	r0, r1
 1254              	.LVL108:
 1255              		.loc 1 462 80 view .LVU335
 1256 0008 FFF7FEFF 		bl	strlen
ARM GAS  C:\Users\geoma\AppData\Local\Temp\ccd1Yrtr.s 			page 34


 1257              	.LVL109:
 1258              		.loc 1 462 10 view .LVU336
 1259 000c 82B2     		uxth	r2, r0
 1260 000e 2146     		mov	r1, r4
 1261 0010 2846     		mov	r0, r5
 1262 0012 FFF7FEFF 		bl	UVOS_COM_SendBufferNonBlocking
 1263              	.LVL110:
 463:flight/uvos/common/uvos_com.c **** }
 1264              		.loc 1 463 1 view .LVU337
 1265 0016 38BD     		pop	{r3, r4, r5, pc}
 1266              		.loc 1 463 1 view .LVU338
 1267              		.cfi_endproc
 1268              	.LFE1386:
 1270              		.section	.text.UVOS_COM_SendString,"ax",%progbits
 1271              		.align	1
 1272              		.global	UVOS_COM_SendString
 1273              		.syntax unified
 1274              		.thumb
 1275              		.thumb_func
 1277              	UVOS_COM_SendString:
 1278              	.LVL111:
 1279              	.LFB1387:
 464:flight/uvos/common/uvos_com.c **** 
 465:flight/uvos/common/uvos_com.c **** /**
 466:flight/uvos/common/uvos_com.c ****  * Sends a string over given port
 467:flight/uvos/common/uvos_com.c ****  * (blocking function)
 468:flight/uvos/common/uvos_com.c ****  * \param[in] port COM port
 469:flight/uvos/common/uvos_com.c ****  * \param[in] str zero-terminated string
 470:flight/uvos/common/uvos_com.c ****  * \return -1 if port not available
 471:flight/uvos/common/uvos_com.c ****  * \return 0 on success
 472:flight/uvos/common/uvos_com.c ****  */
 473:flight/uvos/common/uvos_com.c **** int32_t UVOS_COM_SendString( uint32_t com_id, const char * str )
 474:flight/uvos/common/uvos_com.c **** {
 1280              		.loc 1 474 1 is_stmt 1 view -0
 1281              		.cfi_startproc
 1282              		@ args = 0, pretend = 0, frame = 0
 1283              		@ frame_needed = 0, uses_anonymous_args = 0
 1284              		.loc 1 474 1 is_stmt 0 view .LVU340
 1285 0000 38B5     		push	{r3, r4, r5, lr}
 1286              	.LCFI21:
 1287              		.cfi_def_cfa_offset 16
 1288              		.cfi_offset 3, -16
 1289              		.cfi_offset 4, -12
 1290              		.cfi_offset 5, -8
 1291              		.cfi_offset 14, -4
 1292 0002 0546     		mov	r5, r0
 1293 0004 0C46     		mov	r4, r1
 475:flight/uvos/common/uvos_com.c ****   return UVOS_COM_SendBuffer( com_id, ( uint8_t * )str, strlen( str ) );
 1294              		.loc 1 475 3 is_stmt 1 view .LVU341
 1295              		.loc 1 475 57 is_stmt 0 view .LVU342
 1296 0006 0846     		mov	r0, r1
 1297              	.LVL112:
 1298              		.loc 1 475 57 view .LVU343
 1299 0008 FFF7FEFF 		bl	strlen
 1300              	.LVL113:
 1301              		.loc 1 475 10 view .LVU344
 1302 000c 82B2     		uxth	r2, r0
ARM GAS  C:\Users\geoma\AppData\Local\Temp\ccd1Yrtr.s 			page 35


 1303 000e 2146     		mov	r1, r4
 1304 0010 2846     		mov	r0, r5
 1305 0012 FFF7FEFF 		bl	UVOS_COM_SendBuffer
 1306              	.LVL114:
 476:flight/uvos/common/uvos_com.c **** }
 1307              		.loc 1 476 1 view .LVU345
 1308 0016 38BD     		pop	{r3, r4, r5, pc}
 1309              		.loc 1 476 1 view .LVU346
 1310              		.cfi_endproc
 1311              	.LFE1387:
 1313              		.section	.text.UVOS_COM_SendFormattedStringNonBlocking,"ax",%progbits
 1314              		.align	1
 1315              		.global	UVOS_COM_SendFormattedStringNonBlocking
 1316              		.syntax unified
 1317              		.thumb
 1318              		.thumb_func
 1320              	UVOS_COM_SendFormattedStringNonBlocking:
 1321              	.LVL115:
 1322              	.LFB1388:
 477:flight/uvos/common/uvos_com.c **** 
 478:flight/uvos/common/uvos_com.c **** /**
 479:flight/uvos/common/uvos_com.c ****  * Sends a formatted string (-> printf) over given port
 480:flight/uvos/common/uvos_com.c ****  * \param[in] port COM port
 481:flight/uvos/common/uvos_com.c ****  * \param[in] *format zero-terminated format string - 128 characters supported maximum!
 482:flight/uvos/common/uvos_com.c ****  * \param[in] ... optional arguments,
 483:flight/uvos/common/uvos_com.c ****  *        128 characters supported maximum!
 484:flight/uvos/common/uvos_com.c ****  * \return -2 if non-blocking mode activated: buffer is full
 485:flight/uvos/common/uvos_com.c ****  *         caller should retry until buffer is free again
 486:flight/uvos/common/uvos_com.c ****  * \return 0 on success
 487:flight/uvos/common/uvos_com.c ****  */
 488:flight/uvos/common/uvos_com.c **** int32_t UVOS_COM_SendFormattedStringNonBlocking( uint32_t com_id, const char * format, ... )
 489:flight/uvos/common/uvos_com.c **** {
 1323              		.loc 1 489 1 is_stmt 1 view -0
 1324              		.cfi_startproc
 1325              		@ args = 4, pretend = 12, frame = 136
 1326              		@ frame_needed = 0, uses_anonymous_args = 1
 1327              		.loc 1 489 1 is_stmt 0 view .LVU348
 1328 0000 0EB4     		push	{r1, r2, r3}
 1329              	.LCFI22:
 1330              		.cfi_def_cfa_offset 12
 1331              		.cfi_offset 1, -12
 1332              		.cfi_offset 2, -8
 1333              		.cfi_offset 3, -4
 1334 0002 10B5     		push	{r4, lr}
 1335              	.LCFI23:
 1336              		.cfi_def_cfa_offset 20
 1337              		.cfi_offset 4, -20
 1338              		.cfi_offset 14, -16
 1339 0004 A3B0     		sub	sp, sp, #140
 1340              	.LCFI24:
 1341              		.cfi_def_cfa_offset 160
 1342 0006 0446     		mov	r4, r0
 1343 0008 25AA     		add	r2, sp, #148
 1344 000a 52F8041B 		ldr	r1, [r2], #4
 490:flight/uvos/common/uvos_com.c ****   uint8_t buffer[128]; // TODO: tmp!!! Provide a streamed COM method later!
 1345              		.loc 1 490 3 is_stmt 1 view .LVU349
 491:flight/uvos/common/uvos_com.c **** 
ARM GAS  C:\Users\geoma\AppData\Local\Temp\ccd1Yrtr.s 			page 36


 492:flight/uvos/common/uvos_com.c ****   va_list args;
 1346              		.loc 1 492 3 view .LVU350
 493:flight/uvos/common/uvos_com.c **** 
 494:flight/uvos/common/uvos_com.c ****   va_start( args, format );
 1347              		.loc 1 494 3 view .LVU351
 1348 000e 0192     		str	r2, [sp, #4]
 495:flight/uvos/common/uvos_com.c ****   vsprintf( ( char * )buffer, format, args );
 1349              		.loc 1 495 3 view .LVU352
 1350 0010 02A8     		add	r0, sp, #8
 1351 0012 FFF7FEFF 		bl	vsprintf
 1352              	.LVL116:
 496:flight/uvos/common/uvos_com.c ****   return UVOS_COM_SendBufferNonBlocking( com_id, buffer, ( uint16_t )strlen( ( char * )buffer ) );
 1353              		.loc 1 496 3 view .LVU353
 1354              		.loc 1 496 70 is_stmt 0 view .LVU354
 1355 0016 02A8     		add	r0, sp, #8
 1356 0018 FFF7FEFF 		bl	strlen
 1357              	.LVL117:
 1358              		.loc 1 496 10 view .LVU355
 1359 001c 82B2     		uxth	r2, r0
 1360 001e 02A9     		add	r1, sp, #8
 1361 0020 2046     		mov	r0, r4
 1362 0022 FFF7FEFF 		bl	UVOS_COM_SendBufferNonBlocking
 1363              	.LVL118:
 497:flight/uvos/common/uvos_com.c **** }
 1364              		.loc 1 497 1 view .LVU356
 1365 0026 23B0     		add	sp, sp, #140
 1366              	.LCFI25:
 1367              		.cfi_def_cfa_offset 20
 1368              		@ sp needed
 1369 0028 BDE81040 		pop	{r4, lr}
 1370              	.LCFI26:
 1371              		.cfi_restore 14
 1372              		.cfi_restore 4
 1373              		.cfi_def_cfa_offset 12
 1374              	.LVL119:
 1375              		.loc 1 497 1 view .LVU357
 1376 002c 03B0     		add	sp, sp, #12
 1377              	.LCFI27:
 1378              		.cfi_restore 3
 1379              		.cfi_restore 2
 1380              		.cfi_restore 1
 1381              		.cfi_def_cfa_offset 0
 1382 002e 7047     		bx	lr
 1383              		.cfi_endproc
 1384              	.LFE1388:
 1386              		.section	.text.UVOS_COM_SendFormattedString,"ax",%progbits
 1387              		.align	1
 1388              		.global	UVOS_COM_SendFormattedString
 1389              		.syntax unified
 1390              		.thumb
 1391              		.thumb_func
 1393              	UVOS_COM_SendFormattedString:
 1394              	.LVL120:
 1395              	.LFB1389:
 498:flight/uvos/common/uvos_com.c **** 
 499:flight/uvos/common/uvos_com.c **** /**
 500:flight/uvos/common/uvos_com.c ****  * Sends a formatted string (-> printf) over given port
ARM GAS  C:\Users\geoma\AppData\Local\Temp\ccd1Yrtr.s 			page 37


 501:flight/uvos/common/uvos_com.c ****  * (blocking function)
 502:flight/uvos/common/uvos_com.c ****  * \param[in] port COM port
 503:flight/uvos/common/uvos_com.c ****  * \param[in] *format zero-terminated format string - 128 characters supported maximum!
 504:flight/uvos/common/uvos_com.c ****  * \param[in] ... optional arguments,
 505:flight/uvos/common/uvos_com.c ****  * \return -1 if port not available
 506:flight/uvos/common/uvos_com.c ****  * \return 0 on success
 507:flight/uvos/common/uvos_com.c ****  */
 508:flight/uvos/common/uvos_com.c **** int32_t UVOS_COM_SendFormattedString( uint32_t com_id, const char * format, ... )
 509:flight/uvos/common/uvos_com.c **** {
 1396              		.loc 1 509 1 is_stmt 1 view -0
 1397              		.cfi_startproc
 1398              		@ args = 4, pretend = 12, frame = 136
 1399              		@ frame_needed = 0, uses_anonymous_args = 1
 1400              		.loc 1 509 1 is_stmt 0 view .LVU359
 1401 0000 0EB4     		push	{r1, r2, r3}
 1402              	.LCFI28:
 1403              		.cfi_def_cfa_offset 12
 1404              		.cfi_offset 1, -12
 1405              		.cfi_offset 2, -8
 1406              		.cfi_offset 3, -4
 1407 0002 10B5     		push	{r4, lr}
 1408              	.LCFI29:
 1409              		.cfi_def_cfa_offset 20
 1410              		.cfi_offset 4, -20
 1411              		.cfi_offset 14, -16
 1412 0004 A3B0     		sub	sp, sp, #140
 1413              	.LCFI30:
 1414              		.cfi_def_cfa_offset 160
 1415 0006 0446     		mov	r4, r0
 1416 0008 25AA     		add	r2, sp, #148
 1417 000a 52F8041B 		ldr	r1, [r2], #4
 510:flight/uvos/common/uvos_com.c ****   uint8_t buffer[128]; // TODO: tmp!!! Provide a streamed COM method later!
 1418              		.loc 1 510 3 is_stmt 1 view .LVU360
 511:flight/uvos/common/uvos_com.c ****   va_list args;
 1419              		.loc 1 511 3 view .LVU361
 512:flight/uvos/common/uvos_com.c **** 
 513:flight/uvos/common/uvos_com.c ****   va_start( args, format );
 1420              		.loc 1 513 3 view .LVU362
 1421 000e 0192     		str	r2, [sp, #4]
 514:flight/uvos/common/uvos_com.c ****   vsprintf( ( char * )buffer, format, args );
 1422              		.loc 1 514 3 view .LVU363
 1423 0010 02A8     		add	r0, sp, #8
 1424 0012 FFF7FEFF 		bl	vsprintf
 1425              	.LVL121:
 515:flight/uvos/common/uvos_com.c ****   return UVOS_COM_SendBuffer( com_id, buffer, ( uint16_t )strlen( ( char * )buffer ) );
 1426              		.loc 1 515 3 view .LVU364
 1427              		.loc 1 515 59 is_stmt 0 view .LVU365
 1428 0016 02A8     		add	r0, sp, #8
 1429 0018 FFF7FEFF 		bl	strlen
 1430              	.LVL122:
 1431              		.loc 1 515 10 view .LVU366
 1432 001c 82B2     		uxth	r2, r0
 1433 001e 02A9     		add	r1, sp, #8
 1434 0020 2046     		mov	r0, r4
 1435 0022 FFF7FEFF 		bl	UVOS_COM_SendBuffer
 1436              	.LVL123:
 516:flight/uvos/common/uvos_com.c **** }
ARM GAS  C:\Users\geoma\AppData\Local\Temp\ccd1Yrtr.s 			page 38


 1437              		.loc 1 516 1 view .LVU367
 1438 0026 23B0     		add	sp, sp, #140
 1439              	.LCFI31:
 1440              		.cfi_def_cfa_offset 20
 1441              		@ sp needed
 1442 0028 BDE81040 		pop	{r4, lr}
 1443              	.LCFI32:
 1444              		.cfi_restore 14
 1445              		.cfi_restore 4
 1446              		.cfi_def_cfa_offset 12
 1447              	.LVL124:
 1448              		.loc 1 516 1 view .LVU368
 1449 002c 03B0     		add	sp, sp, #12
 1450              	.LCFI33:
 1451              		.cfi_restore 3
 1452              		.cfi_restore 2
 1453              		.cfi_restore 1
 1454              		.cfi_def_cfa_offset 0
 1455 002e 7047     		bx	lr
 1456              		.cfi_endproc
 1457              	.LFE1389:
 1459              		.section	.text.UVOS_COM_ReceiveBuffer,"ax",%progbits
 1460              		.align	1
 1461              		.global	UVOS_COM_ReceiveBuffer
 1462              		.syntax unified
 1463              		.thumb
 1464              		.thumb_func
 1466              	UVOS_COM_ReceiveBuffer:
 1467              	.LVL125:
 1468              	.LFB1390:
 517:flight/uvos/common/uvos_com.c **** 
 518:flight/uvos/common/uvos_com.c **** /**
 519:flight/uvos/common/uvos_com.c ****  * Transfer bytes from port buffers into another buffer
 520:flight/uvos/common/uvos_com.c ****  * \param[in] port COM port
 521:flight/uvos/common/uvos_com.c ****  * \returns Byte from buffer
 522:flight/uvos/common/uvos_com.c ****  */
 523:flight/uvos/common/uvos_com.c **** uint16_t UVOS_COM_ReceiveBuffer( uint32_t com_id, uint8_t * buf, uint16_t buf_len, uint32_t timeout
 524:flight/uvos/common/uvos_com.c **** {
 1469              		.loc 1 524 1 is_stmt 1 view -0
 1470              		.cfi_startproc
 1471              		@ args = 0, pretend = 0, frame = 0
 1472              		@ frame_needed = 0, uses_anonymous_args = 0
 525:flight/uvos/common/uvos_com.c ****   UVOS_Assert( buf );
 1473              		.loc 1 525 3 view .LVU370
 1474 0000 39B1     		cbz	r1, .L123
 524:flight/uvos/common/uvos_com.c ****   UVOS_Assert( buf );
 1475              		.loc 1 524 1 is_stmt 0 discriminator 2 view .LVU371
 1476 0002 2DE9F84F 		push	{r3, r4, r5, r6, r7, r8, r9, r10, fp, lr}
 1477              	.LCFI34:
 1478              		.cfi_def_cfa_offset 40
 1479              		.cfi_offset 3, -40
 1480              		.cfi_offset 4, -36
 1481              		.cfi_offset 5, -32
 1482              		.cfi_offset 6, -28
 1483              		.cfi_offset 7, -24
 1484              		.cfi_offset 8, -20
 1485              		.cfi_offset 9, -16
ARM GAS  C:\Users\geoma\AppData\Local\Temp\ccd1Yrtr.s 			page 39


 1486              		.cfi_offset 10, -12
 1487              		.cfi_offset 11, -8
 1488              		.cfi_offset 14, -4
 1489 0006 0446     		mov	r4, r0
 1490 0008 1746     		mov	r7, r2
 1491 000a 1D46     		mov	r5, r3
 1492 000c 8946     		mov	r9, r1
 1493              		.loc 1 525 21 is_stmt 1 discriminator 2 view .LVU372
 526:flight/uvos/common/uvos_com.c ****   UVOS_Assert( buf_len );
 1494              		.loc 1 526 3 discriminator 2 view .LVU373
 1495 000e 0AB9     		cbnz	r2, .L124
 1496              	.L125:
 1497              		.loc 1 526 3 discriminator 2 view .LVU374
 1498              		.loc 1 526 3 discriminator 2 view .LVU375
 1499              		.loc 1 526 3 discriminator 2 view .LVU376
 1500 0010 FEE7     		b	.L125
 1501              	.L123:
 1502              	.LCFI35:
 1503              		.cfi_def_cfa_offset 0
 1504              		.cfi_restore 3
 1505              		.cfi_restore 4
 1506              		.cfi_restore 5
 1507              		.cfi_restore 6
 1508              		.cfi_restore 7
 1509              		.cfi_restore 8
 1510              		.cfi_restore 9
 1511              		.cfi_restore 10
 1512              		.cfi_restore 11
 1513              		.cfi_restore 14
 525:flight/uvos/common/uvos_com.c ****   UVOS_Assert( buf );
 1514              		.loc 1 525 3 discriminator 1 view .LVU377
 525:flight/uvos/common/uvos_com.c ****   UVOS_Assert( buf );
 1515              		.loc 1 525 3 discriminator 1 view .LVU378
 525:flight/uvos/common/uvos_com.c ****   UVOS_Assert( buf );
 1516              		.loc 1 525 3 discriminator 1 view .LVU379
 1517 0012 FEE7     		b	.L123
 1518              	.L124:
 1519              	.LCFI36:
 1520              		.cfi_def_cfa_offset 40
 1521              		.cfi_offset 3, -40
 1522              		.cfi_offset 4, -36
 1523              		.cfi_offset 5, -32
 1524              		.cfi_offset 6, -28
 1525              		.cfi_offset 7, -24
 1526              		.cfi_offset 8, -20
 1527              		.cfi_offset 9, -16
 1528              		.cfi_offset 10, -12
 1529              		.cfi_offset 11, -8
 1530              		.cfi_offset 14, -4
 1531              		.loc 1 526 25 discriminator 2 view .LVU380
 527:flight/uvos/common/uvos_com.c ****   uint16_t bytes_from_fifo;
 1532              		.loc 1 527 3 discriminator 2 view .LVU381
 528:flight/uvos/common/uvos_com.c **** 
 529:flight/uvos/common/uvos_com.c ****   struct uvos_com_dev * com_dev = ( struct uvos_com_dev * )com_id;
 1533              		.loc 1 529 3 discriminator 2 view .LVU382
 1534              	.LVL126:
 530:flight/uvos/common/uvos_com.c **** 
ARM GAS  C:\Users\geoma\AppData\Local\Temp\ccd1Yrtr.s 			page 40


 531:flight/uvos/common/uvos_com.c ****   if ( !UVOS_COM_validate( com_dev ) ) {
 1535              		.loc 1 531 3 discriminator 2 view .LVU383
 1536              		.loc 1 531 9 is_stmt 0 discriminator 2 view .LVU384
 1537 0014 FFF7FEFF 		bl	UVOS_COM_validate
 1538              	.LVL127:
 1539              		.loc 1 531 6 discriminator 2 view .LVU385
 1540 0018 00B9     		cbnz	r0, .L126
 1541              	.L127:
 532:flight/uvos/common/uvos_com.c ****     /* Undefined COM port for this board (see uvos_board.c) */
 533:flight/uvos/common/uvos_com.c ****     UVOS_Assert( 0 );
 1542              		.loc 1 533 5 is_stmt 1 discriminator 3 view .LVU386
 1543              		.loc 1 533 5 discriminator 3 view .LVU387
 1544              		.loc 1 533 5 discriminator 3 view .LVU388
 1545 001a FEE7     		b	.L127
 1546              	.L126:
 1547              		.loc 1 533 21 discriminator 2 view .LVU389
 534:flight/uvos/common/uvos_com.c ****   }
 535:flight/uvos/common/uvos_com.c ****   UVOS_Assert( com_dev->has_rx );
 1548              		.loc 1 535 3 discriminator 2 view .LVU390
 1549 001c 237B     		ldrb	r3, [r4, #12]	@ zero_extendqisi2
 1550 001e 2BB9     		cbnz	r3, .L128
 1551              	.L129:
 1552              		.loc 1 535 3 discriminator 4 view .LVU391
 1553              		.loc 1 535 3 discriminator 4 view .LVU392
 1554              		.loc 1 535 3 discriminator 4 view .LVU393
 1555 0020 FEE7     		b	.L129
 1556              	.LVL128:
 1557              	.L131:
 536:flight/uvos/common/uvos_com.c **** 
 537:flight/uvos/common/uvos_com.c **** check_again:
 538:flight/uvos/common/uvos_com.c ****   bytes_from_fifo = fifoBuf_getData( &com_dev->rx, buf, buf_len );
 539:flight/uvos/common/uvos_com.c **** 
 540:flight/uvos/common/uvos_com.c ****   if ( bytes_from_fifo == 0 ) {
 541:flight/uvos/common/uvos_com.c ****     /* No more bytes in receive buffer */
 542:flight/uvos/common/uvos_com.c ****     /* Make sure the receiver is running while we wait */
 543:flight/uvos/common/uvos_com.c ****     if ( com_dev->driver->rx_start ) {
 544:flight/uvos/common/uvos_com.c ****       /* Notify the lower layer that there is now room in the rx buffer */
 545:flight/uvos/common/uvos_com.c ****       ( com_dev->driver->rx_start )( com_dev->lower_id,
 546:flight/uvos/common/uvos_com.c ****                                      fifoBuf_getFree( &com_dev->rx ) );
 547:flight/uvos/common/uvos_com.c ****     }
 548:flight/uvos/common/uvos_com.c ****     if ( timeout_ms > 0 ) {
 1558              		.loc 1 548 5 view .LVU394
 1559              		.loc 1 548 8 is_stmt 0 view .LVU395
 1560 0022 DDB1     		cbz	r5, .L130
 549:flight/uvos/common/uvos_com.c **** #if defined(UVOS_INCLUDE_FREERTOS)
 550:flight/uvos/common/uvos_com.c ****       if ( xSemaphoreTake( com_dev->rx_sem, timeout_ms / portTICK_RATE_MS ) == pdTRUE ) {
 551:flight/uvos/common/uvos_com.c ****         /* Make sure we don't come back here again */
 552:flight/uvos/common/uvos_com.c ****         timeout_ms = 0;
 553:flight/uvos/common/uvos_com.c ****         goto check_again;
 554:flight/uvos/common/uvos_com.c ****       }
 555:flight/uvos/common/uvos_com.c **** #else
 556:flight/uvos/common/uvos_com.c ****       UVOS_DELAY_WaitmS( 1 );
 1561              		.loc 1 556 7 is_stmt 1 view .LVU396
 1562 0024 0120     		movs	r0, #1
 1563 0026 FFF7FEFF 		bl	UVOS_DELAY_WaitmS
 1564              	.LVL129:
 557:flight/uvos/common/uvos_com.c ****       timeout_ms--;
ARM GAS  C:\Users\geoma\AppData\Local\Temp\ccd1Yrtr.s 			page 41


 1565              		.loc 1 557 7 view .LVU397
 1566              		.loc 1 557 17 is_stmt 0 view .LVU398
 1567 002a 013D     		subs	r5, r5, #1
 1568              	.LVL130:
 558:flight/uvos/common/uvos_com.c ****       goto check_again;
 1569              		.loc 1 558 7 is_stmt 1 view .LVU399
 1570              	.L128:
 535:flight/uvos/common/uvos_com.c **** 
 1571              		.loc 1 535 33 discriminator 2 view .LVU400
 538:flight/uvos/common/uvos_com.c **** 
 1572              		.loc 1 538 3 discriminator 2 view .LVU401
 538:flight/uvos/common/uvos_com.c **** 
 1573              		.loc 1 538 21 is_stmt 0 discriminator 2 view .LVU402
 1574 002c 04F11006 		add	r6, r4, #16
 1575 0030 3A46     		mov	r2, r7
 1576 0032 4946     		mov	r1, r9
 1577 0034 3046     		mov	r0, r6
 1578 0036 FFF7FEFF 		bl	fifoBuf_getData
 1579              	.LVL131:
 540:flight/uvos/common/uvos_com.c ****     /* No more bytes in receive buffer */
 1580              		.loc 1 540 3 is_stmt 1 discriminator 2 view .LVU403
 540:flight/uvos/common/uvos_com.c ****     /* No more bytes in receive buffer */
 1581              		.loc 1 540 6 is_stmt 0 discriminator 2 view .LVU404
 1582 003a 8246     		mov	r10, r0
 1583 003c 70B9     		cbnz	r0, .L130
 543:flight/uvos/common/uvos_com.c ****       /* Notify the lower layer that there is now room in the rx buffer */
 1584              		.loc 1 543 5 is_stmt 1 view .LVU405
 543:flight/uvos/common/uvos_com.c ****       /* Notify the lower layer that there is now room in the rx buffer */
 1585              		.loc 1 543 17 is_stmt 0 view .LVU406
 1586 003e A368     		ldr	r3, [r4, #8]
 543:flight/uvos/common/uvos_com.c ****       /* Notify the lower layer that there is now room in the rx buffer */
 1587              		.loc 1 543 25 view .LVU407
 1588 0040 D3F80880 		ldr	r8, [r3, #8]
 543:flight/uvos/common/uvos_com.c ****       /* Notify the lower layer that there is now room in the rx buffer */
 1589              		.loc 1 543 8 view .LVU408
 1590 0044 B8F1000F 		cmp	r8, #0
 1591 0048 EBD0     		beq	.L131
 545:flight/uvos/common/uvos_com.c ****                                      fifoBuf_getFree( &com_dev->rx ) );
 1592              		.loc 1 545 7 is_stmt 1 view .LVU409
 545:flight/uvos/common/uvos_com.c ****                                      fifoBuf_getFree( &com_dev->rx ) );
 1593              		.loc 1 545 24 is_stmt 0 view .LVU410
 1594 004a D4F804B0 		ldr	fp, [r4, #4]
 1595 004e 3046     		mov	r0, r6
 1596              	.LVL132:
 545:flight/uvos/common/uvos_com.c ****                                      fifoBuf_getFree( &com_dev->rx ) );
 1597              		.loc 1 545 24 view .LVU411
 1598 0050 FFF7FEFF 		bl	fifoBuf_getFree
 1599              	.LVL133:
 1600 0054 0146     		mov	r1, r0
 1601 0056 5846     		mov	r0, fp
 1602 0058 C047     		blx	r8
 1603              	.LVL134:
 1604 005a E2E7     		b	.L131
 1605              	.L130:
 559:flight/uvos/common/uvos_com.c **** #endif
 560:flight/uvos/common/uvos_com.c ****     }
 561:flight/uvos/common/uvos_com.c ****   }
ARM GAS  C:\Users\geoma\AppData\Local\Temp\ccd1Yrtr.s 			page 42


 562:flight/uvos/common/uvos_com.c **** 
 563:flight/uvos/common/uvos_com.c ****   /* Return received byte */
 564:flight/uvos/common/uvos_com.c ****   return bytes_from_fifo;
 1606              		.loc 1 564 3 is_stmt 1 view .LVU412
 565:flight/uvos/common/uvos_com.c **** }
 1607              		.loc 1 565 1 is_stmt 0 view .LVU413
 1608 005c 5046     		mov	r0, r10
 1609 005e BDE8F88F 		pop	{r3, r4, r5, r6, r7, r8, r9, r10, fp, pc}
 1610              		.loc 1 565 1 view .LVU414
 1611              		.cfi_endproc
 1612              	.LFE1390:
 1614              		.section	.text.UVOS_COM_Available,"ax",%progbits
 1615              		.align	1
 1616              		.global	UVOS_COM_Available
 1617              		.syntax unified
 1618              		.thumb
 1619              		.thumb_func
 1621              	UVOS_COM_Available:
 1622              	.LVL135:
 1623              	.LFB1391:
 566:flight/uvos/common/uvos_com.c **** 
 567:flight/uvos/common/uvos_com.c **** /**
 568:flight/uvos/common/uvos_com.c ****  * Query if a com port is available for use.  That can be
 569:flight/uvos/common/uvos_com.c ****  * used to check a link is established even if the device
 570:flight/uvos/common/uvos_com.c ****  * is valid.
 571:flight/uvos/common/uvos_com.c ****  */
 572:flight/uvos/common/uvos_com.c **** uint32_t UVOS_COM_Available( uint32_t com_id )
 573:flight/uvos/common/uvos_com.c **** {
 1624              		.loc 1 573 1 is_stmt 1 view -0
 1625              		.cfi_startproc
 1626              		@ args = 0, pretend = 0, frame = 0
 1627              		@ frame_needed = 0, uses_anonymous_args = 0
 1628              		.loc 1 573 1 is_stmt 0 view .LVU416
 1629 0000 10B5     		push	{r4, lr}
 1630              	.LCFI37:
 1631              		.cfi_def_cfa_offset 8
 1632              		.cfi_offset 4, -8
 1633              		.cfi_offset 14, -4
 1634 0002 0446     		mov	r4, r0
 574:flight/uvos/common/uvos_com.c ****   struct uvos_com_dev * com_dev = ( struct uvos_com_dev * )com_id;
 1635              		.loc 1 574 3 is_stmt 1 view .LVU417
 1636              	.LVL136:
 575:flight/uvos/common/uvos_com.c **** 
 576:flight/uvos/common/uvos_com.c ****   if ( !UVOS_COM_validate( com_dev ) ) {
 1637              		.loc 1 576 3 view .LVU418
 1638              		.loc 1 576 9 is_stmt 0 view .LVU419
 1639 0004 FFF7FEFF 		bl	UVOS_COM_validate
 1640              	.LVL137:
 1641              		.loc 1 576 6 view .LVU420
 1642 0008 80B1     		cbz	r0, .L138
 577:flight/uvos/common/uvos_com.c ****     return COM_AVAILABLE_NONE;
 578:flight/uvos/common/uvos_com.c ****   }
 579:flight/uvos/common/uvos_com.c **** 
 580:flight/uvos/common/uvos_com.c ****   // If a driver does not provide a query method assume always
 581:flight/uvos/common/uvos_com.c ****   // available if valid
 582:flight/uvos/common/uvos_com.c ****   if ( com_dev->driver->available == NULL ) {
 1643              		.loc 1 582 3 is_stmt 1 view .LVU421
ARM GAS  C:\Users\geoma\AppData\Local\Temp\ccd1Yrtr.s 			page 43


 1644              		.loc 1 582 15 is_stmt 0 view .LVU422
 1645 000a A368     		ldr	r3, [r4, #8]
 1646              		.loc 1 582 23 view .LVU423
 1647 000c 9B69     		ldr	r3, [r3, #24]
 1648              		.loc 1 582 6 view .LVU424
 1649 000e 13B1     		cbz	r3, .L143
 583:flight/uvos/common/uvos_com.c ****     if ( com_dev->has_rx && com_dev->has_tx ) {
 584:flight/uvos/common/uvos_com.c ****       return COM_AVAILABLE_RXTX;
 585:flight/uvos/common/uvos_com.c ****     } else if ( com_dev->has_rx ) {
 586:flight/uvos/common/uvos_com.c ****       return COM_AVAILABLE_RX;
 587:flight/uvos/common/uvos_com.c ****     } else if ( com_dev->has_tx ) {
 588:flight/uvos/common/uvos_com.c ****       return COM_AVAILABLE_TX;
 589:flight/uvos/common/uvos_com.c ****     }
 590:flight/uvos/common/uvos_com.c **** 
 591:flight/uvos/common/uvos_com.c ****     return COM_AVAILABLE_NONE; /* can this really happen? */
 592:flight/uvos/common/uvos_com.c ****   }
 593:flight/uvos/common/uvos_com.c **** 
 594:flight/uvos/common/uvos_com.c ****   return ( com_dev->driver->available )( com_dev->lower_id );
 1650              		.loc 1 594 3 is_stmt 1 view .LVU425
 1651              		.loc 1 594 27 is_stmt 0 view .LVU426
 1652 0010 6068     		ldr	r0, [r4, #4]
 1653 0012 9847     		blx	r3
 1654              	.LVL138:
 1655              	.L134:
 595:flight/uvos/common/uvos_com.c **** }
 1656              		.loc 1 595 1 view .LVU427
 1657 0014 10BD     		pop	{r4, pc}
 1658              	.LVL139:
 1659              	.L143:
 583:flight/uvos/common/uvos_com.c ****     if ( com_dev->has_rx && com_dev->has_tx ) {
 1660              		.loc 1 583 5 is_stmt 1 view .LVU428
 583:flight/uvos/common/uvos_com.c ****     if ( com_dev->has_rx && com_dev->has_tx ) {
 1661              		.loc 1 583 17 is_stmt 0 view .LVU429
 1662 0016 237B     		ldrb	r3, [r4, #12]	@ zero_extendqisi2
 583:flight/uvos/common/uvos_com.c ****     if ( com_dev->has_rx && com_dev->has_tx ) {
 1663              		.loc 1 583 8 view .LVU430
 1664 0018 0BB1     		cbz	r3, .L137
 583:flight/uvos/common/uvos_com.c ****     if ( com_dev->has_rx && com_dev->has_tx ) {
 1665              		.loc 1 583 36 discriminator 1 view .LVU431
 1666 001a 627B     		ldrb	r2, [r4, #13]	@ zero_extendqisi2
 583:flight/uvos/common/uvos_com.c ****     if ( com_dev->has_rx && com_dev->has_tx ) {
 1667              		.loc 1 583 26 discriminator 1 view .LVU432
 1668 001c 42B9     		cbnz	r2, .L139
 1669              	.L137:
 585:flight/uvos/common/uvos_com.c ****       return COM_AVAILABLE_RX;
 1670              		.loc 1 585 12 is_stmt 1 view .LVU433
 585:flight/uvos/common/uvos_com.c ****       return COM_AVAILABLE_RX;
 1671              		.loc 1 585 15 is_stmt 0 view .LVU434
 1672 001e 4BB9     		cbnz	r3, .L140
 587:flight/uvos/common/uvos_com.c ****       return COM_AVAILABLE_TX;
 1673              		.loc 1 587 12 is_stmt 1 view .LVU435
 587:flight/uvos/common/uvos_com.c ****       return COM_AVAILABLE_TX;
 1674              		.loc 1 587 24 is_stmt 0 view .LVU436
 1675 0020 637B     		ldrb	r3, [r4, #13]	@ zero_extendqisi2
 587:flight/uvos/common/uvos_com.c ****       return COM_AVAILABLE_TX;
 1676              		.loc 1 587 15 view .LVU437
 1677 0022 0BB9     		cbnz	r3, .L144
ARM GAS  C:\Users\geoma\AppData\Local\Temp\ccd1Yrtr.s 			page 44


 591:flight/uvos/common/uvos_com.c ****   }
 1678              		.loc 1 591 12 view .LVU438
 1679 0024 0020     		movs	r0, #0
 1680 0026 F5E7     		b	.L134
 1681              	.L144:
 588:flight/uvos/common/uvos_com.c ****     }
 1682              		.loc 1 588 14 view .LVU439
 1683 0028 0220     		movs	r0, #2
 1684 002a F3E7     		b	.L134
 1685              	.L138:
 577:flight/uvos/common/uvos_com.c ****   }
 1686              		.loc 1 577 12 view .LVU440
 1687 002c 0020     		movs	r0, #0
 1688 002e F1E7     		b	.L134
 1689              	.L139:
 584:flight/uvos/common/uvos_com.c ****     } else if ( com_dev->has_rx ) {
 1690              		.loc 1 584 14 view .LVU441
 1691 0030 0320     		movs	r0, #3
 1692 0032 EFE7     		b	.L134
 1693              	.L140:
 586:flight/uvos/common/uvos_com.c ****     } else if ( com_dev->has_tx ) {
 1694              		.loc 1 586 14 view .LVU442
 1695 0034 0120     		movs	r0, #1
 1696 0036 EDE7     		b	.L134
 1697              		.cfi_endproc
 1698              	.LFE1391:
 1700              		.section	.bss.uvos_com_devs,"aw",%nobits
 1701              		.align	2
 1702              		.set	.LANCHOR1,. + 0
 1705              	uvos_com_devs:
 1706 0000 00000000 		.space	160
 1706      00000000 
 1706      00000000 
 1706      00000000 
 1706      00000000 
 1707              		.section	.bss.uvos_com_num_devs,"aw",%nobits
 1708              		.set	.LANCHOR0,. + 0
 1711              	uvos_com_num_devs:
 1712 0000 00       		.space	1
 1713              		.text
 1714              	.Letext0:
 1715              		.file 2 "c:\\program files (x86)\\gnu arm embedded toolchain\\10.3-2021.10\\arm-none-eabi\\include
 1716              		.file 3 "c:\\program files (x86)\\gnu arm embedded toolchain\\10.3-2021.10\\lib\\gcc\\arm-none-eab
 1717              		.file 4 "c:\\program files (x86)\\gnu arm embedded toolchain\\10.3-2021.10\\arm-none-eabi\\include
 1718              		.file 5 "c:\\program files (x86)\\gnu arm embedded toolchain\\10.3-2021.10\\arm-none-eabi\\include
 1719              		.file 6 "./flight/uvos/stm32f4xx/libraries/STM32F4xx_HAL_Driver/Inc/stm32f4xx_ll_dma.h"
 1720              		.file 7 "./flight/uvos/stm32f4xx/libraries/STM32F4xx_HAL_Driver/Inc/stm32f4xx_ll_tim.h"
 1721              		.file 8 "./flight/uvos/inc/uvos_com.h"
 1722              		.file 9 "./flight/libraries/inc/fifo_buffer.h"
 1723              		.file 10 "./flight/uvos/inc/uvos_delay.h"
 1724              		.file 11 "c:\\program files (x86)\\gnu arm embedded toolchain\\10.3-2021.10\\arm-none-eabi\\includ
 1725              		.file 12 "<built-in>"
ARM GAS  C:\Users\geoma\AppData\Local\Temp\ccd1Yrtr.s 			page 45

